
.output/hello.elf:     file format elf64-littleriscv


Disassembly of section .text:

0000000080000000 <_start>:
    80000000:	00005117          	auipc	sp,0x5
    80000004:	28010113          	add	sp,sp,640 # 80005280 <__stack_top>
    80000008:	00010433          	add	s0,sp,zero
    8000000c:	1a8000ef          	jal	800001b4 <main>

0000000080000010 <loop>:
    80000010:	0000006f          	j	80000010 <loop>

0000000080000014 <load_packet_from_mem>:
    80000014:	fa010113          	add	sp,sp,-96
    80000018:	04113c23          	sd	ra,88(sp)
    8000001c:	04813823          	sd	s0,80(sp)
    80000020:	06010413          	add	s0,sp,96
    80000024:	faa43c23          	sd	a0,-72(s0)
    80000028:	fab43823          	sd	a1,-80(s0)
    8000002c:	fac43423          	sd	a2,-88(s0)
    80000030:	00001797          	auipc	a5,0x1
    80000034:	1a078793          	add	a5,a5,416 # 800011d0 <my_data_region_start>
    80000038:	0007a783          	lw	a5,0(a5)
    8000003c:	02079793          	sll	a5,a5,0x20
    80000040:	0207d793          	srl	a5,a5,0x20
    80000044:	40f007b3          	neg	a5,a5
    80000048:	fb843703          	ld	a4,-72(s0)
    8000004c:	00f707b3          	add	a5,a4,a5
    80000050:	0007871b          	sext.w	a4,a5
    80000054:	fa843783          	ld	a5,-88(s0)
    80000058:	00e7a023          	sw	a4,0(a5)
    8000005c:	fb843783          	ld	a5,-72(s0)
    80000060:	fef43423          	sd	a5,-24(s0)
    80000064:	fb843783          	ld	a5,-72(s0)
    80000068:	fef43023          	sd	a5,-32(s0)
    8000006c:	fc042c23          	sw	zero,-40(s0)
    80000070:	fc042e23          	sw	zero,-36(s0)
    80000074:	00001517          	auipc	a0,0x1
    80000078:	f9450513          	add	a0,a0,-108 # 80001008 <uart_base+0x8>
    8000007c:	370000ef          	jal	800003ec <uart_puts>
    80000080:	0980006f          	j	80000118 <load_packet_from_mem+0x104>
    80000084:	fe043703          	ld	a4,-32(s0)
    80000088:	fb043783          	ld	a5,-80(s0)
    8000008c:	00f71c63          	bne	a4,a5,800000a4 <load_packet_from_mem+0x90>
    80000090:	00001517          	auipc	a0,0x1
    80000094:	f9850513          	add	a0,a0,-104 # 80001028 <uart_base+0x28>
    80000098:	354000ef          	jal	800003ec <uart_puts>
    8000009c:	ffd00793          	li	a5,-3
    800000a0:	1000006f          	j	800001a0 <load_packet_from_mem+0x18c>
    800000a4:	fdc42783          	lw	a5,-36(s0)
    800000a8:	0037f793          	and	a5,a5,3
    800000ac:	0007879b          	sext.w	a5,a5
    800000b0:	00079863          	bnez	a5,800000c0 <load_packet_from_mem+0xac>
    800000b4:	00001517          	auipc	a0,0x1
    800000b8:	f8c50513          	add	a0,a0,-116 # 80001040 <uart_base+0x40>
    800000bc:	330000ef          	jal	800003ec <uart_puts>
    800000c0:	00001797          	auipc	a5,0x1
    800000c4:	fa078793          	add	a5,a5,-96 # 80001060 <uart_base+0x60>
    800000c8:	0007b703          	ld	a4,0(a5)
    800000cc:	fce43023          	sd	a4,-64(s0)
    800000d0:	0087b783          	ld	a5,8(a5)
    800000d4:	fcf43423          	sd	a5,-56(s0)
    800000d8:	fc042823          	sw	zero,-48(s0)
    800000dc:	fe043783          	ld	a5,-32(s0)
    800000e0:	0007a703          	lw	a4,0(a5)
    800000e4:	fc040793          	add	a5,s0,-64
    800000e8:	00070613          	mv	a2,a4
    800000ec:	fe043583          	ld	a1,-32(s0)
    800000f0:	00078513          	mv	a0,a5
    800000f4:	71c000ef          	jal	80000810 <printf>
    800000f8:	fe043783          	ld	a5,-32(s0)
    800000fc:	fef43423          	sd	a5,-24(s0)
    80000100:	fe043783          	ld	a5,-32(s0)
    80000104:	00478793          	add	a5,a5,4
    80000108:	fef43023          	sd	a5,-32(s0)
    8000010c:	fdc42783          	lw	a5,-36(s0)
    80000110:	0017879b          	addw	a5,a5,1
    80000114:	fcf42e23          	sw	a5,-36(s0)
    80000118:	fe043783          	ld	a5,-32(s0)
    8000011c:	0007a783          	lw	a5,0(a5)
    80000120:	00078713          	mv	a4,a5
    80000124:	fff00793          	li	a5,-1
    80000128:	f4f71ee3          	bne	a4,a5,80000084 <load_packet_from_mem+0x70>
    8000012c:	fe843783          	ld	a5,-24(s0)
    80000130:	0007a783          	lw	a5,0(a5)
    80000134:	00078713          	mv	a4,a5
    80000138:	fff00793          	li	a5,-1
    8000013c:	f4f714e3          	bne	a4,a5,80000084 <load_packet_from_mem+0x70>
    80000140:	00001797          	auipc	a5,0x1
    80000144:	09078793          	add	a5,a5,144 # 800011d0 <my_data_region_start>
    80000148:	0007a783          	lw	a5,0(a5)
    8000014c:	02079793          	sll	a5,a5,0x20
    80000150:	0207d793          	srl	a5,a5,0x20
    80000154:	00279793          	sll	a5,a5,0x2
    80000158:	40f007b3          	neg	a5,a5
    8000015c:	fe843703          	ld	a4,-24(s0)
    80000160:	00f707b3          	add	a5,a4,a5
    80000164:	0007871b          	sext.w	a4,a5
    80000168:	fa843783          	ld	a5,-88(s0)
    8000016c:	00e7a223          	sw	a4,4(a5)
    80000170:	fa843783          	ld	a5,-88(s0)
    80000174:	06300713          	li	a4,99
    80000178:	00e7a623          	sw	a4,12(a5)
    8000017c:	fa843783          	ld	a5,-88(s0)
    80000180:	0007a823          	sw	zero,16(a5)
    80000184:	fa843783          	ld	a5,-88(s0)
    80000188:	0007aa23          	sw	zero,20(a5)
    8000018c:	fa843783          	ld	a5,-88(s0)
    80000190:	0007a423          	sw	zero,8(a5)
    80000194:	00001517          	auipc	a0,0x1
    80000198:	eb450513          	add	a0,a0,-332 # 80001048 <uart_base+0x48>
    8000019c:	250000ef          	jal	800003ec <uart_puts>
    800001a0:	00078513          	mv	a0,a5
    800001a4:	05813083          	ld	ra,88(sp)
    800001a8:	05013403          	ld	s0,80(sp)
    800001ac:	06010113          	add	sp,sp,96
    800001b0:	00008067          	ret

00000000800001b4 <main>:
    800001b4:	fa010113          	add	sp,sp,-96
    800001b8:	04113c23          	sd	ra,88(sp)
    800001bc:	04813823          	sd	s0,80(sp)
    800001c0:	06010413          	add	s0,sp,96
    800001c4:	100007b7          	lui	a5,0x10000
    800001c8:	00278793          	add	a5,a5,2 # 10000002 <_start-0x6ffffffe>
    800001cc:	00100713          	li	a4,1
    800001d0:	00e78023          	sb	a4,0(a5)
    800001d4:	00001517          	auipc	a0,0x1
    800001d8:	ea450513          	add	a0,a0,-348 # 80001078 <uart_base+0x78>
    800001dc:	210000ef          	jal	800003ec <uart_puts>
    800001e0:	00001797          	auipc	a5,0x1
    800001e4:	f1878793          	add	a5,a5,-232 # 800010f8 <uart_base+0xf8>
    800001e8:	0007c703          	lbu	a4,0(a5)
    800001ec:	00070f13          	mv	t5,a4
    800001f0:	0017c703          	lbu	a4,1(a5)
    800001f4:	00070e93          	mv	t4,a4
    800001f8:	0027c703          	lbu	a4,2(a5)
    800001fc:	00070e13          	mv	t3,a4
    80000200:	0037c703          	lbu	a4,3(a5)
    80000204:	00070313          	mv	t1,a4
    80000208:	0047c703          	lbu	a4,4(a5)
    8000020c:	00070893          	mv	a7,a4
    80000210:	0057c703          	lbu	a4,5(a5)
    80000214:	00070813          	mv	a6,a4
    80000218:	0067c703          	lbu	a4,6(a5)
    8000021c:	00070513          	mv	a0,a4
    80000220:	0077c703          	lbu	a4,7(a5)
    80000224:	00070593          	mv	a1,a4
    80000228:	0087c703          	lbu	a4,8(a5)
    8000022c:	00070613          	mv	a2,a4
    80000230:	0097c703          	lbu	a4,9(a5)
    80000234:	00070693          	mv	a3,a4
    80000238:	00a7c703          	lbu	a4,10(a5)
    8000023c:	00b7c783          	lbu	a5,11(a5)
    80000240:	fbe40c23          	sb	t5,-72(s0)
    80000244:	fbd40ca3          	sb	t4,-71(s0)
    80000248:	fbc40d23          	sb	t3,-70(s0)
    8000024c:	fa640da3          	sb	t1,-69(s0)
    80000250:	fb140e23          	sb	a7,-68(s0)
    80000254:	fb040ea3          	sb	a6,-67(s0)
    80000258:	faa40f23          	sb	a0,-66(s0)
    8000025c:	fab40fa3          	sb	a1,-65(s0)
    80000260:	fcc40023          	sb	a2,-64(s0)
    80000264:	fcd400a3          	sb	a3,-63(s0)
    80000268:	fce40123          	sb	a4,-62(s0)
    8000026c:	fcf401a3          	sb	a5,-61(s0)
    80000270:	fc042223          	sw	zero,-60(s0)
    80000274:	fc042423          	sw	zero,-56(s0)
    80000278:	fc042623          	sw	zero,-52(s0)
    8000027c:	fc042823          	sw	zero,-48(s0)
    80000280:	fc042a23          	sw	zero,-44(s0)
    80000284:	fc042c23          	sw	zero,-40(s0)
    80000288:	fc042e23          	sw	zero,-36(s0)
    8000028c:	fe042023          	sw	zero,-32(s0)
    80000290:	fe042223          	sw	zero,-28(s0)
    80000294:	fe041423          	sh	zero,-24(s0)
    80000298:	fb840793          	add	a5,s0,-72
    8000029c:	00001597          	auipc	a1,0x1
    800002a0:	df458593          	add	a1,a1,-524 # 80001090 <uart_base+0x90>
    800002a4:	00078513          	mv	a0,a5
    800002a8:	500000ef          	jal	800007a8 <strcpy>
    800002ac:	fb840793          	add	a5,s0,-72
    800002b0:	00001597          	auipc	a1,0x1
    800002b4:	f2058593          	add	a1,a1,-224 # 800011d0 <my_data_region_start>
    800002b8:	00078513          	mv	a0,a5
    800002bc:	554000ef          	jal	80000810 <printf>
    800002c0:	fb840793          	add	a5,s0,-72
    800002c4:	00001597          	auipc	a1,0x1
    800002c8:	de458593          	add	a1,a1,-540 # 800010a8 <uart_base+0xa8>
    800002cc:	00078513          	mv	a0,a5
    800002d0:	4d8000ef          	jal	800007a8 <strcpy>
    800002d4:	fb840793          	add	a5,s0,-72
    800002d8:	00001597          	auipc	a1,0x1
    800002dc:	fa458593          	add	a1,a1,-92 # 8000127c <my_data_region_end>
    800002e0:	00078513          	mv	a0,a5
    800002e4:	52c000ef          	jal	80000810 <printf>
    800002e8:	fa040793          	add	a5,s0,-96
    800002ec:	00078613          	mv	a2,a5
    800002f0:	00001597          	auipc	a1,0x1
    800002f4:	f8c58593          	add	a1,a1,-116 # 8000127c <my_data_region_end>
    800002f8:	00001517          	auipc	a0,0x1
    800002fc:	ed850513          	add	a0,a0,-296 # 800011d0 <my_data_region_start>
    80000300:	d15ff0ef          	jal	80000014 <load_packet_from_mem>
    80000304:	fb840793          	add	a5,s0,-72
    80000308:	00001597          	auipc	a1,0x1
    8000030c:	db858593          	add	a1,a1,-584 # 800010c0 <uart_base+0xc0>
    80000310:	00078513          	mv	a0,a5
    80000314:	494000ef          	jal	800007a8 <strcpy>
    80000318:	fa042703          	lw	a4,-96(s0)
    8000031c:	fb840793          	add	a5,s0,-72
    80000320:	00070593          	mv	a1,a4
    80000324:	00078513          	mv	a0,a5
    80000328:	4e8000ef          	jal	80000810 <printf>
    8000032c:	fb840793          	add	a5,s0,-72
    80000330:	00001597          	auipc	a1,0x1
    80000334:	da858593          	add	a1,a1,-600 # 800010d8 <uart_base+0xd8>
    80000338:	00078513          	mv	a0,a5
    8000033c:	46c000ef          	jal	800007a8 <strcpy>
    80000340:	fa442703          	lw	a4,-92(s0)
    80000344:	fb840793          	add	a5,s0,-72
    80000348:	00070593          	mv	a1,a4
    8000034c:	00078513          	mv	a0,a5
    80000350:	4c0000ef          	jal	80000810 <printf>
    80000354:	fa040793          	add	a5,s0,-96
    80000358:	01800593          	li	a1,24
    8000035c:	00078513          	mv	a0,a5
    80000360:	291000ef          	jal	80000df0 <bpf_main>
    80000364:	00050793          	mv	a5,a0
    80000368:	fef42623          	sw	a5,-20(s0)
    8000036c:	fb840793          	add	a5,s0,-72
    80000370:	00001597          	auipc	a1,0x1
    80000374:	d7858593          	add	a1,a1,-648 # 800010e8 <uart_base+0xe8>
    80000378:	00078513          	mv	a0,a5
    8000037c:	42c000ef          	jal	800007a8 <strcpy>
    80000380:	fec42703          	lw	a4,-20(s0)
    80000384:	fb840793          	add	a5,s0,-72
    80000388:	00070593          	mv	a1,a4
    8000038c:	00078513          	mv	a0,a5
    80000390:	480000ef          	jal	80000810 <printf>
    80000394:	0000006f          	j	80000394 <main+0x1e0>

0000000080000398 <uart_putc>:
    80000398:	fe010113          	add	sp,sp,-32
    8000039c:	00813c23          	sd	s0,24(sp)
    800003a0:	02010413          	add	s0,sp,32
    800003a4:	00050793          	mv	a5,a0
    800003a8:	fef407a3          	sb	a5,-17(s0)
    800003ac:	00000013          	nop
    800003b0:	100007b7          	lui	a5,0x10000
    800003b4:	00578793          	add	a5,a5,5 # 10000005 <_start-0x6ffffffb>
    800003b8:	0007c783          	lbu	a5,0(a5)
    800003bc:	0ff7f793          	zext.b	a5,a5
    800003c0:	0007879b          	sext.w	a5,a5
    800003c4:	0207f793          	and	a5,a5,32
    800003c8:	0007879b          	sext.w	a5,a5
    800003cc:	fe0782e3          	beqz	a5,800003b0 <uart_putc+0x18>
    800003d0:	100007b7          	lui	a5,0x10000
    800003d4:	fef44703          	lbu	a4,-17(s0)
    800003d8:	00e78023          	sb	a4,0(a5) # 10000000 <_start-0x70000000>
    800003dc:	00000013          	nop
    800003e0:	01813403          	ld	s0,24(sp)
    800003e4:	02010113          	add	sp,sp,32
    800003e8:	00008067          	ret

00000000800003ec <uart_puts>:
    800003ec:	fd010113          	add	sp,sp,-48
    800003f0:	02113423          	sd	ra,40(sp)
    800003f4:	02813023          	sd	s0,32(sp)
    800003f8:	03010413          	add	s0,sp,48
    800003fc:	fca43c23          	sd	a0,-40(s0)
    80000400:	fe042623          	sw	zero,-20(s0)
    80000404:	0280006f          	j	8000042c <uart_puts+0x40>
    80000408:	fd843783          	ld	a5,-40(s0)
    8000040c:	00178713          	add	a4,a5,1
    80000410:	fce43c23          	sd	a4,-40(s0)
    80000414:	0007c783          	lbu	a5,0(a5)
    80000418:	00078513          	mv	a0,a5
    8000041c:	f7dff0ef          	jal	80000398 <uart_putc>
    80000420:	fec42783          	lw	a5,-20(s0)
    80000424:	0017879b          	addw	a5,a5,1
    80000428:	fef42623          	sw	a5,-20(s0)
    8000042c:	fd843783          	ld	a5,-40(s0)
    80000430:	0007c783          	lbu	a5,0(a5)
    80000434:	fc079ae3          	bnez	a5,80000408 <uart_puts+0x1c>
    80000438:	fec42783          	lw	a5,-20(s0)
    8000043c:	00078513          	mv	a0,a5
    80000440:	02813083          	ld	ra,40(sp)
    80000444:	02013403          	ld	s0,32(sp)
    80000448:	03010113          	add	sp,sp,48
    8000044c:	00008067          	ret

0000000080000450 <reverse_string>:
    80000450:	fd010113          	add	sp,sp,-48
    80000454:	02813423          	sd	s0,40(sp)
    80000458:	03010413          	add	s0,sp,48
    8000045c:	fca43c23          	sd	a0,-40(s0)
    80000460:	00058793          	mv	a5,a1
    80000464:	fcf42a23          	sw	a5,-44(s0)
    80000468:	fe042623          	sw	zero,-20(s0)
    8000046c:	fd442783          	lw	a5,-44(s0)
    80000470:	fff7879b          	addw	a5,a5,-1
    80000474:	fef42423          	sw	a5,-24(s0)
    80000478:	0640006f          	j	800004dc <reverse_string+0x8c>
    8000047c:	fec42783          	lw	a5,-20(s0)
    80000480:	fd843703          	ld	a4,-40(s0)
    80000484:	00f707b3          	add	a5,a4,a5
    80000488:	0007c783          	lbu	a5,0(a5)
    8000048c:	fef403a3          	sb	a5,-25(s0)
    80000490:	fe842783          	lw	a5,-24(s0)
    80000494:	fd843703          	ld	a4,-40(s0)
    80000498:	00f70733          	add	a4,a4,a5
    8000049c:	fec42783          	lw	a5,-20(s0)
    800004a0:	fd843683          	ld	a3,-40(s0)
    800004a4:	00f687b3          	add	a5,a3,a5
    800004a8:	00074703          	lbu	a4,0(a4)
    800004ac:	00e78023          	sb	a4,0(a5)
    800004b0:	fe842783          	lw	a5,-24(s0)
    800004b4:	fd843703          	ld	a4,-40(s0)
    800004b8:	00f707b3          	add	a5,a4,a5
    800004bc:	fe744703          	lbu	a4,-25(s0)
    800004c0:	00e78023          	sb	a4,0(a5)
    800004c4:	fec42783          	lw	a5,-20(s0)
    800004c8:	0017879b          	addw	a5,a5,1
    800004cc:	fef42623          	sw	a5,-20(s0)
    800004d0:	fe842783          	lw	a5,-24(s0)
    800004d4:	fff7879b          	addw	a5,a5,-1
    800004d8:	fef42423          	sw	a5,-24(s0)
    800004dc:	fec42783          	lw	a5,-20(s0)
    800004e0:	00078713          	mv	a4,a5
    800004e4:	fe842783          	lw	a5,-24(s0)
    800004e8:	0007071b          	sext.w	a4,a4
    800004ec:	0007879b          	sext.w	a5,a5
    800004f0:	f8f746e3          	blt	a4,a5,8000047c <reverse_string+0x2c>
    800004f4:	00000013          	nop
    800004f8:	00000013          	nop
    800004fc:	02813403          	ld	s0,40(sp)
    80000500:	03010113          	add	sp,sp,48
    80000504:	00008067          	ret

0000000080000508 <itoa>:
    80000508:	fd010113          	add	sp,sp,-48
    8000050c:	02113423          	sd	ra,40(sp)
    80000510:	02813023          	sd	s0,32(sp)
    80000514:	03010413          	add	s0,sp,48
    80000518:	00050793          	mv	a5,a0
    8000051c:	fcb43823          	sd	a1,-48(s0)
    80000520:	fcf42e23          	sw	a5,-36(s0)
    80000524:	fdc42783          	lw	a5,-36(s0)
    80000528:	fef42423          	sw	a5,-24(s0)
    8000052c:	fe842783          	lw	a5,-24(s0)
    80000530:	0007879b          	sext.w	a5,a5
    80000534:	0007d863          	bgez	a5,80000544 <itoa+0x3c>
    80000538:	fdc42783          	lw	a5,-36(s0)
    8000053c:	40f007bb          	negw	a5,a5
    80000540:	fcf42e23          	sw	a5,-36(s0)
    80000544:	fe042623          	sw	zero,-20(s0)
    80000548:	fdc42783          	lw	a5,-36(s0)
    8000054c:	00078713          	mv	a4,a5
    80000550:	00a00793          	li	a5,10
    80000554:	02f767bb          	remw	a5,a4,a5
    80000558:	0007879b          	sext.w	a5,a5
    8000055c:	0ff7f713          	zext.b	a4,a5
    80000560:	fec42783          	lw	a5,-20(s0)
    80000564:	0017869b          	addw	a3,a5,1
    80000568:	fed42623          	sw	a3,-20(s0)
    8000056c:	00078693          	mv	a3,a5
    80000570:	fd043783          	ld	a5,-48(s0)
    80000574:	00d787b3          	add	a5,a5,a3
    80000578:	0307071b          	addw	a4,a4,48
    8000057c:	0ff77713          	zext.b	a4,a4
    80000580:	00e78023          	sb	a4,0(a5)
    80000584:	fdc42783          	lw	a5,-36(s0)
    80000588:	00078713          	mv	a4,a5
    8000058c:	00a00793          	li	a5,10
    80000590:	02f747bb          	divw	a5,a4,a5
    80000594:	fcf42e23          	sw	a5,-36(s0)
    80000598:	fdc42783          	lw	a5,-36(s0)
    8000059c:	0007879b          	sext.w	a5,a5
    800005a0:	faf044e3          	bgtz	a5,80000548 <itoa+0x40>
    800005a4:	fe842783          	lw	a5,-24(s0)
    800005a8:	0007879b          	sext.w	a5,a5
    800005ac:	0207d263          	bgez	a5,800005d0 <itoa+0xc8>
    800005b0:	fec42783          	lw	a5,-20(s0)
    800005b4:	0017871b          	addw	a4,a5,1
    800005b8:	fee42623          	sw	a4,-20(s0)
    800005bc:	00078713          	mv	a4,a5
    800005c0:	fd043783          	ld	a5,-48(s0)
    800005c4:	00e787b3          	add	a5,a5,a4
    800005c8:	02d00713          	li	a4,45
    800005cc:	00e78023          	sb	a4,0(a5)
    800005d0:	fec42783          	lw	a5,-20(s0)
    800005d4:	fd043703          	ld	a4,-48(s0)
    800005d8:	00f707b3          	add	a5,a4,a5
    800005dc:	00078023          	sb	zero,0(a5)
    800005e0:	fec42783          	lw	a5,-20(s0)
    800005e4:	00078593          	mv	a1,a5
    800005e8:	fd043503          	ld	a0,-48(s0)
    800005ec:	e65ff0ef          	jal	80000450 <reverse_string>
    800005f0:	00000013          	nop
    800005f4:	02813083          	ld	ra,40(sp)
    800005f8:	02013403          	ld	s0,32(sp)
    800005fc:	03010113          	add	sp,sp,48
    80000600:	00008067          	ret

0000000080000604 <hextoa>:
    80000604:	fa010113          	add	sp,sp,-96
    80000608:	04813c23          	sd	s0,88(sp)
    8000060c:	06010413          	add	s0,sp,96
    80000610:	00050793          	mv	a5,a0
    80000614:	fab43023          	sd	a1,-96(s0)
    80000618:	00060713          	mv	a4,a2
    8000061c:	faf42623          	sw	a5,-84(s0)
    80000620:	00070793          	mv	a5,a4
    80000624:	faf42423          	sw	a5,-88(s0)
    80000628:	00001797          	auipc	a5,0x1
    8000062c:	ae078793          	add	a5,a5,-1312 # 80001108 <uart_base+0x108>
    80000630:	0007b703          	ld	a4,0(a5)
    80000634:	fae43c23          	sd	a4,-72(s0)
    80000638:	0087b703          	ld	a4,8(a5)
    8000063c:	fce43023          	sd	a4,-64(s0)
    80000640:	0107c783          	lbu	a5,16(a5)
    80000644:	fcf40423          	sb	a5,-56(s0)
    80000648:	fa043783          	ld	a5,-96(s0)
    8000064c:	fef43423          	sd	a5,-24(s0)
    80000650:	fa043783          	ld	a5,-96(s0)
    80000654:	fef43023          	sd	a5,-32(s0)
    80000658:	01000793          	li	a5,16
    8000065c:	fcf42623          	sw	a5,-52(s0)
    80000660:	fc042e23          	sw	zero,-36(s0)
    80000664:	fac42783          	lw	a5,-84(s0)
    80000668:	0007879b          	sext.w	a5,a5
    8000066c:	06079c63          	bnez	a5,800006e4 <hextoa+0xe0>
    80000670:	fe843783          	ld	a5,-24(s0)
    80000674:	00178713          	add	a4,a5,1
    80000678:	fee43423          	sd	a4,-24(s0)
    8000067c:	03000713          	li	a4,48
    80000680:	00e78023          	sb	a4,0(a5)
    80000684:	fdc42783          	lw	a5,-36(s0)
    80000688:	0017879b          	addw	a5,a5,1
    8000068c:	fcf42e23          	sw	a5,-36(s0)
    80000690:	0600006f          	j	800006f0 <hextoa+0xec>
    80000694:	fcc42783          	lw	a5,-52(s0)
    80000698:	fac42703          	lw	a4,-84(s0)
    8000069c:	02f777bb          	remuw	a5,a4,a5
    800006a0:	0007869b          	sext.w	a3,a5
    800006a4:	fe843783          	ld	a5,-24(s0)
    800006a8:	00178713          	add	a4,a5,1
    800006ac:	fee43423          	sd	a4,-24(s0)
    800006b0:	02069713          	sll	a4,a3,0x20
    800006b4:	02075713          	srl	a4,a4,0x20
    800006b8:	ff070713          	add	a4,a4,-16
    800006bc:	00870733          	add	a4,a4,s0
    800006c0:	fc874703          	lbu	a4,-56(a4)
    800006c4:	00e78023          	sb	a4,0(a5)
    800006c8:	fcc42783          	lw	a5,-52(s0)
    800006cc:	fac42703          	lw	a4,-84(s0)
    800006d0:	02f757bb          	divuw	a5,a4,a5
    800006d4:	faf42623          	sw	a5,-84(s0)
    800006d8:	fdc42783          	lw	a5,-36(s0)
    800006dc:	0017879b          	addw	a5,a5,1
    800006e0:	fcf42e23          	sw	a5,-36(s0)
    800006e4:	fac42783          	lw	a5,-84(s0)
    800006e8:	0007879b          	sext.w	a5,a5
    800006ec:	fa0794e3          	bnez	a5,80000694 <hextoa+0x90>
    800006f0:	fa842783          	lw	a5,-88(s0)
    800006f4:	0007879b          	sext.w	a5,a5
    800006f8:	04f05063          	blez	a5,80000738 <hextoa+0x134>
    800006fc:	0240006f          	j	80000720 <hextoa+0x11c>
    80000700:	fe843783          	ld	a5,-24(s0)
    80000704:	00178713          	add	a4,a5,1
    80000708:	fee43423          	sd	a4,-24(s0)
    8000070c:	03000713          	li	a4,48
    80000710:	00e78023          	sb	a4,0(a5)
    80000714:	fdc42783          	lw	a5,-36(s0)
    80000718:	0017879b          	addw	a5,a5,1
    8000071c:	fcf42e23          	sw	a5,-36(s0)
    80000720:	fdc42783          	lw	a5,-36(s0)
    80000724:	00078713          	mv	a4,a5
    80000728:	fa842783          	lw	a5,-88(s0)
    8000072c:	0007071b          	sext.w	a4,a4
    80000730:	0007879b          	sext.w	a5,a5
    80000734:	fcf746e3          	blt	a4,a5,80000700 <hextoa+0xfc>
    80000738:	fe843783          	ld	a5,-24(s0)
    8000073c:	00078023          	sb	zero,0(a5)
    80000740:	fe843783          	ld	a5,-24(s0)
    80000744:	fff78793          	add	a5,a5,-1
    80000748:	fcf43823          	sd	a5,-48(s0)
    8000074c:	03c0006f          	j	80000788 <hextoa+0x184>
    80000750:	fe043783          	ld	a5,-32(s0)
    80000754:	0007c783          	lbu	a5,0(a5)
    80000758:	fcf405a3          	sb	a5,-53(s0)
    8000075c:	fe043783          	ld	a5,-32(s0)
    80000760:	00178713          	add	a4,a5,1
    80000764:	fee43023          	sd	a4,-32(s0)
    80000768:	fd043703          	ld	a4,-48(s0)
    8000076c:	00074703          	lbu	a4,0(a4)
    80000770:	00e78023          	sb	a4,0(a5)
    80000774:	fd043783          	ld	a5,-48(s0)
    80000778:	fff78713          	add	a4,a5,-1
    8000077c:	fce43823          	sd	a4,-48(s0)
    80000780:	fcb44703          	lbu	a4,-53(s0)
    80000784:	00e78023          	sb	a4,0(a5)
    80000788:	fe043703          	ld	a4,-32(s0)
    8000078c:	fd043783          	ld	a5,-48(s0)
    80000790:	fcf760e3          	bltu	a4,a5,80000750 <hextoa+0x14c>
    80000794:	00000013          	nop
    80000798:	00000013          	nop
    8000079c:	05813403          	ld	s0,88(sp)
    800007a0:	06010113          	add	sp,sp,96
    800007a4:	00008067          	ret

00000000800007a8 <strcpy>:
    800007a8:	fd010113          	add	sp,sp,-48
    800007ac:	02813423          	sd	s0,40(sp)
    800007b0:	03010413          	add	s0,sp,48
    800007b4:	fca43c23          	sd	a0,-40(s0)
    800007b8:	fcb43823          	sd	a1,-48(s0)
    800007bc:	fd843783          	ld	a5,-40(s0)
    800007c0:	fef43423          	sd	a5,-24(s0)
    800007c4:	0240006f          	j	800007e8 <strcpy+0x40>
    800007c8:	fd043703          	ld	a4,-48(s0)
    800007cc:	00170793          	add	a5,a4,1
    800007d0:	fcf43823          	sd	a5,-48(s0)
    800007d4:	fe843783          	ld	a5,-24(s0)
    800007d8:	00178693          	add	a3,a5,1
    800007dc:	fed43423          	sd	a3,-24(s0)
    800007e0:	00074703          	lbu	a4,0(a4)
    800007e4:	00e78023          	sb	a4,0(a5)
    800007e8:	fd043783          	ld	a5,-48(s0)
    800007ec:	0007c783          	lbu	a5,0(a5)
    800007f0:	fc079ce3          	bnez	a5,800007c8 <strcpy+0x20>
    800007f4:	fe843783          	ld	a5,-24(s0)
    800007f8:	00078023          	sb	zero,0(a5)
    800007fc:	fd843783          	ld	a5,-40(s0)
    80000800:	00078513          	mv	a0,a5
    80000804:	02813403          	ld	s0,40(sp)
    80000808:	03010113          	add	sp,sp,48
    8000080c:	00008067          	ret

0000000080000810 <printf>:
    80000810:	f4010113          	add	sp,sp,-192
    80000814:	06113c23          	sd	ra,120(sp)
    80000818:	06813823          	sd	s0,112(sp)
    8000081c:	08010413          	add	s0,sp,128
    80000820:	f8a43423          	sd	a0,-120(s0)
    80000824:	00b43423          	sd	a1,8(s0)
    80000828:	00c43823          	sd	a2,16(s0)
    8000082c:	00d43c23          	sd	a3,24(s0)
    80000830:	02e43023          	sd	a4,32(s0)
    80000834:	02f43423          	sd	a5,40(s0)
    80000838:	03043823          	sd	a6,48(s0)
    8000083c:	03143c23          	sd	a7,56(s0)
    80000840:	f8843783          	ld	a5,-120(s0)
    80000844:	00079c63          	bnez	a5,8000085c <printf+0x4c>
    80000848:	00001517          	auipc	a0,0x1
    8000084c:	8d850513          	add	a0,a0,-1832 # 80001120 <uart_base+0x120>
    80000850:	b9dff0ef          	jal	800003ec <uart_puts>
    80000854:	00000793          	li	a5,0
    80000858:	28c0006f          	j	80000ae4 <printf+0x2d4>
    8000085c:	04040793          	add	a5,s0,64
    80000860:	f8f43023          	sd	a5,-128(s0)
    80000864:	f8043783          	ld	a5,-128(s0)
    80000868:	fc878793          	add	a5,a5,-56
    8000086c:	faf43823          	sd	a5,-80(s0)
    80000870:	f8843783          	ld	a5,-120(s0)
    80000874:	fcf43c23          	sd	a5,-40(s0)
    80000878:	fe042623          	sw	zero,-20(s0)
    8000087c:	fe042423          	sw	zero,-24(s0)
    80000880:	fe042223          	sw	zero,-28(s0)
    80000884:	fc042a23          	sw	zero,-44(s0)
    80000888:	fe842783          	lw	a5,-24(s0)
    8000088c:	fd843703          	ld	a4,-40(s0)
    80000890:	00f707b3          	add	a5,a4,a5
    80000894:	0007c783          	lbu	a5,0(a5)
    80000898:	00078713          	mv	a4,a5
    8000089c:	02500793          	li	a5,37
    800008a0:	00f71a63          	bne	a4,a5,800008b4 <printf+0xa4>
    800008a4:	fe842783          	lw	a5,-24(s0)
    800008a8:	0017879b          	addw	a5,a5,1
    800008ac:	fef42423          	sw	a5,-24(s0)
    800008b0:	0400006f          	j	800008f0 <printf+0xe0>
    800008b4:	fe842783          	lw	a5,-24(s0)
    800008b8:	fd843703          	ld	a4,-40(s0)
    800008bc:	00f707b3          	add	a5,a4,a5
    800008c0:	0007c783          	lbu	a5,0(a5)
    800008c4:	20078c63          	beqz	a5,80000adc <printf+0x2cc>
    800008c8:	fe842783          	lw	a5,-24(s0)
    800008cc:	fd843703          	ld	a4,-40(s0)
    800008d0:	00f707b3          	add	a5,a4,a5
    800008d4:	0007c783          	lbu	a5,0(a5)
    800008d8:	00078513          	mv	a0,a5
    800008dc:	abdff0ef          	jal	80000398 <uart_putc>
    800008e0:	fe842783          	lw	a5,-24(s0)
    800008e4:	0017879b          	addw	a5,a5,1
    800008e8:	fef42423          	sw	a5,-24(s0)
    800008ec:	f9dff06f          	j	80000888 <printf+0x78>
    800008f0:	fe842783          	lw	a5,-24(s0)
    800008f4:	fd843703          	ld	a4,-40(s0)
    800008f8:	00f707b3          	add	a5,a4,a5
    800008fc:	0007c783          	lbu	a5,0(a5)
    80000900:	fcf42a23          	sw	a5,-44(s0)
    80000904:	fd442783          	lw	a5,-44(s0)
    80000908:	fd07879b          	addw	a5,a5,-48
    8000090c:	0007879b          	sext.w	a5,a5
    80000910:	00078713          	mv	a4,a5
    80000914:	00900793          	li	a5,9
    80000918:	04e7e663          	bltu	a5,a4,80000964 <printf+0x154>
    8000091c:	fd442783          	lw	a5,-44(s0)
    80000920:	fd07879b          	addw	a5,a5,-48
    80000924:	0007879b          	sext.w	a5,a5
    80000928:	faf42e23          	sw	a5,-68(s0)
    8000092c:	fec42783          	lw	a5,-20(s0)
    80000930:	00078713          	mv	a4,a5
    80000934:	00070793          	mv	a5,a4
    80000938:	0027979b          	sllw	a5,a5,0x2
    8000093c:	00e787bb          	addw	a5,a5,a4
    80000940:	0017979b          	sllw	a5,a5,0x1
    80000944:	0007879b          	sext.w	a5,a5
    80000948:	fbc42703          	lw	a4,-68(s0)
    8000094c:	00f707bb          	addw	a5,a4,a5
    80000950:	fef42623          	sw	a5,-20(s0)
    80000954:	fe842783          	lw	a5,-24(s0)
    80000958:	0017879b          	addw	a5,a5,1
    8000095c:	fef42423          	sw	a5,-24(s0)
    80000960:	f91ff06f          	j	800008f0 <printf+0xe0>
    80000964:	00000013          	nop
    80000968:	fe842783          	lw	a5,-24(s0)
    8000096c:	fd843703          	ld	a4,-40(s0)
    80000970:	00f707b3          	add	a5,a4,a5
    80000974:	0007c783          	lbu	a5,0(a5)
    80000978:	00078713          	mv	a4,a5
    8000097c:	06400793          	li	a5,100
    80000980:	04f71463          	bne	a4,a5,800009c8 <printf+0x1b8>
    80000984:	fb043783          	ld	a5,-80(s0)
    80000988:	00878713          	add	a4,a5,8
    8000098c:	fae43823          	sd	a4,-80(s0)
    80000990:	0007a783          	lw	a5,0(a5)
    80000994:	fcf42023          	sw	a5,-64(s0)
    80000998:	f9040713          	add	a4,s0,-112
    8000099c:	fc042783          	lw	a5,-64(s0)
    800009a0:	00070593          	mv	a1,a4
    800009a4:	00078513          	mv	a0,a5
    800009a8:	b61ff0ef          	jal	80000508 <itoa>
    800009ac:	f9040793          	add	a5,s0,-112
    800009b0:	00078513          	mv	a0,a5
    800009b4:	a39ff0ef          	jal	800003ec <uart_puts>
    800009b8:	fe442783          	lw	a5,-28(s0)
    800009bc:	0017879b          	addw	a5,a5,1
    800009c0:	fef42223          	sw	a5,-28(s0)
    800009c4:	1040006f          	j	80000ac8 <printf+0x2b8>
    800009c8:	fe842783          	lw	a5,-24(s0)
    800009cc:	fd843703          	ld	a4,-40(s0)
    800009d0:	00f707b3          	add	a5,a4,a5
    800009d4:	0007c783          	lbu	a5,0(a5)
    800009d8:	00078713          	mv	a4,a5
    800009dc:	07800793          	li	a5,120
    800009e0:	04f71a63          	bne	a4,a5,80000a34 <printf+0x224>
    800009e4:	fb043783          	ld	a5,-80(s0)
    800009e8:	00878713          	add	a4,a5,8
    800009ec:	fae43823          	sd	a4,-80(s0)
    800009f0:	0007a783          	lw	a5,0(a5)
    800009f4:	fcf42223          	sw	a5,-60(s0)
    800009f8:	fec42683          	lw	a3,-20(s0)
    800009fc:	f9040713          	add	a4,s0,-112
    80000a00:	fc442783          	lw	a5,-60(s0)
    80000a04:	00068613          	mv	a2,a3
    80000a08:	00070593          	mv	a1,a4
    80000a0c:	00078513          	mv	a0,a5
    80000a10:	bf5ff0ef          	jal	80000604 <hextoa>
    80000a14:	f9040793          	add	a5,s0,-112
    80000a18:	00078513          	mv	a0,a5
    80000a1c:	9d1ff0ef          	jal	800003ec <uart_puts>
    80000a20:	00050793          	mv	a5,a0
    80000a24:	fe442703          	lw	a4,-28(s0)
    80000a28:	00f707bb          	addw	a5,a4,a5
    80000a2c:	fef42223          	sw	a5,-28(s0)
    80000a30:	0980006f          	j	80000ac8 <printf+0x2b8>
    80000a34:	fe842783          	lw	a5,-24(s0)
    80000a38:	fd843703          	ld	a4,-40(s0)
    80000a3c:	00f707b3          	add	a5,a4,a5
    80000a40:	0007c783          	lbu	a5,0(a5)
    80000a44:	00078713          	mv	a4,a5
    80000a48:	07300793          	li	a5,115
    80000a4c:	02f71a63          	bne	a4,a5,80000a80 <printf+0x270>
    80000a50:	fb043783          	ld	a5,-80(s0)
    80000a54:	00878713          	add	a4,a5,8
    80000a58:	fae43823          	sd	a4,-80(s0)
    80000a5c:	0007b783          	ld	a5,0(a5)
    80000a60:	fcf43423          	sd	a5,-56(s0)
    80000a64:	fc843503          	ld	a0,-56(s0)
    80000a68:	985ff0ef          	jal	800003ec <uart_puts>
    80000a6c:	00050793          	mv	a5,a0
    80000a70:	fe442703          	lw	a4,-28(s0)
    80000a74:	00f707bb          	addw	a5,a4,a5
    80000a78:	fef42223          	sw	a5,-28(s0)
    80000a7c:	04c0006f          	j	80000ac8 <printf+0x2b8>
    80000a80:	fe842783          	lw	a5,-24(s0)
    80000a84:	fd843703          	ld	a4,-40(s0)
    80000a88:	00f707b3          	add	a5,a4,a5
    80000a8c:	0007c783          	lbu	a5,0(a5)
    80000a90:	00078713          	mv	a4,a5
    80000a94:	06300793          	li	a5,99
    80000a98:	02f71863          	bne	a4,a5,80000ac8 <printf+0x2b8>
    80000a9c:	fb043783          	ld	a5,-80(s0)
    80000aa0:	00878713          	add	a4,a5,8
    80000aa4:	fae43823          	sd	a4,-80(s0)
    80000aa8:	0007a783          	lw	a5,0(a5)
    80000aac:	fcf409a3          	sb	a5,-45(s0)
    80000ab0:	fd344783          	lbu	a5,-45(s0)
    80000ab4:	00078513          	mv	a0,a5
    80000ab8:	8e1ff0ef          	jal	80000398 <uart_putc>
    80000abc:	fe442783          	lw	a5,-28(s0)
    80000ac0:	0017879b          	addw	a5,a5,1
    80000ac4:	fef42223          	sw	a5,-28(s0)
    80000ac8:	fe042623          	sw	zero,-20(s0)
    80000acc:	fe842783          	lw	a5,-24(s0)
    80000ad0:	0017879b          	addw	a5,a5,1
    80000ad4:	fef42423          	sw	a5,-24(s0)
    80000ad8:	db1ff06f          	j	80000888 <printf+0x78>
    80000adc:	00000013          	nop
    80000ae0:	fe442783          	lw	a5,-28(s0)
    80000ae4:	00078513          	mv	a0,a5
    80000ae8:	07813083          	ld	ra,120(sp)
    80000aec:	07013403          	ld	s0,112(sp)
    80000af0:	0c010113          	add	sp,sp,192
    80000af4:	00008067          	ret

0000000080000af8 <strlen>:
    80000af8:	fd010113          	add	sp,sp,-48
    80000afc:	02813423          	sd	s0,40(sp)
    80000b00:	03010413          	add	s0,sp,48
    80000b04:	fca43c23          	sd	a0,-40(s0)
    80000b08:	fe042623          	sw	zero,-20(s0)
    80000b0c:	0100006f          	j	80000b1c <strlen+0x24>
    80000b10:	fec42783          	lw	a5,-20(s0)
    80000b14:	0017879b          	addw	a5,a5,1
    80000b18:	fef42623          	sw	a5,-20(s0)
    80000b1c:	fec42783          	lw	a5,-20(s0)
    80000b20:	fd843703          	ld	a4,-40(s0)
    80000b24:	00f707b3          	add	a5,a4,a5
    80000b28:	0007c783          	lbu	a5,0(a5)
    80000b2c:	fe0792e3          	bnez	a5,80000b10 <strlen+0x18>
    80000b30:	fec42783          	lw	a5,-20(s0)
    80000b34:	00078513          	mv	a0,a5
    80000b38:	02813403          	ld	s0,40(sp)
    80000b3c:	03010113          	add	sp,sp,48
    80000b40:	00008067          	ret

0000000080000b44 <_bpf_helper_ext_0006>:
    80000b44:	f4010113          	add	sp,sp,-192
    80000b48:	06113c23          	sd	ra,120(sp)
    80000b4c:	06813823          	sd	s0,112(sp)
    80000b50:	08010413          	add	s0,sp,128
    80000b54:	f8a43423          	sd	a0,-120(s0)
    80000b58:	00b43423          	sd	a1,8(s0)
    80000b5c:	00c43823          	sd	a2,16(s0)
    80000b60:	00d43c23          	sd	a3,24(s0)
    80000b64:	02e43023          	sd	a4,32(s0)
    80000b68:	02f43423          	sd	a5,40(s0)
    80000b6c:	03043823          	sd	a6,48(s0)
    80000b70:	03143c23          	sd	a7,56(s0)
    80000b74:	f8843783          	ld	a5,-120(s0)
    80000b78:	00079c63          	bnez	a5,80000b90 <_bpf_helper_ext_0006+0x4c>
    80000b7c:	00000517          	auipc	a0,0x0
    80000b80:	5dc50513          	add	a0,a0,1500 # 80001158 <uart_base+0x158>
    80000b84:	869ff0ef          	jal	800003ec <uart_puts>
    80000b88:	00000793          	li	a5,0
    80000b8c:	2500006f          	j	80000ddc <_bpf_helper_ext_0006+0x298>
    80000b90:	04040793          	add	a5,s0,64
    80000b94:	f8f43023          	sd	a5,-128(s0)
    80000b98:	f8043783          	ld	a5,-128(s0)
    80000b9c:	fc878793          	add	a5,a5,-56
    80000ba0:	faf43c23          	sd	a5,-72(s0)
    80000ba4:	f8843783          	ld	a5,-120(s0)
    80000ba8:	fef43023          	sd	a5,-32(s0)
    80000bac:	fe042623          	sw	zero,-20(s0)
    80000bb0:	fe042423          	sw	zero,-24(s0)
    80000bb4:	fc042e23          	sw	zero,-36(s0)
    80000bb8:	fe842783          	lw	a5,-24(s0)
    80000bbc:	fe043703          	ld	a4,-32(s0)
    80000bc0:	00f707b3          	add	a5,a4,a5
    80000bc4:	0007c783          	lbu	a5,0(a5)
    80000bc8:	00078713          	mv	a4,a5
    80000bcc:	02500793          	li	a5,37
    80000bd0:	00f71a63          	bne	a4,a5,80000be4 <_bpf_helper_ext_0006+0xa0>
    80000bd4:	fe842783          	lw	a5,-24(s0)
    80000bd8:	0017879b          	addw	a5,a5,1
    80000bdc:	fef42423          	sw	a5,-24(s0)
    80000be0:	0400006f          	j	80000c20 <_bpf_helper_ext_0006+0xdc>
    80000be4:	fe842783          	lw	a5,-24(s0)
    80000be8:	fe043703          	ld	a4,-32(s0)
    80000bec:	00f707b3          	add	a5,a4,a5
    80000bf0:	0007c783          	lbu	a5,0(a5)
    80000bf4:	1e078063          	beqz	a5,80000dd4 <_bpf_helper_ext_0006+0x290>
    80000bf8:	fe842783          	lw	a5,-24(s0)
    80000bfc:	fe043703          	ld	a4,-32(s0)
    80000c00:	00f707b3          	add	a5,a4,a5
    80000c04:	0007c783          	lbu	a5,0(a5)
    80000c08:	00078513          	mv	a0,a5
    80000c0c:	f8cff0ef          	jal	80000398 <uart_putc>
    80000c10:	fe842783          	lw	a5,-24(s0)
    80000c14:	0017879b          	addw	a5,a5,1
    80000c18:	fef42423          	sw	a5,-24(s0)
    80000c1c:	f9dff06f          	j	80000bb8 <_bpf_helper_ext_0006+0x74>
    80000c20:	fe842783          	lw	a5,-24(s0)
    80000c24:	fe043703          	ld	a4,-32(s0)
    80000c28:	00f707b3          	add	a5,a4,a5
    80000c2c:	0007c783          	lbu	a5,0(a5)
    80000c30:	fcf42e23          	sw	a5,-36(s0)
    80000c34:	fdc42783          	lw	a5,-36(s0)
    80000c38:	fd07879b          	addw	a5,a5,-48
    80000c3c:	0007879b          	sext.w	a5,a5
    80000c40:	00078713          	mv	a4,a5
    80000c44:	00900793          	li	a5,9
    80000c48:	04e7e663          	bltu	a5,a4,80000c94 <_bpf_helper_ext_0006+0x150>
    80000c4c:	fdc42783          	lw	a5,-36(s0)
    80000c50:	fd07879b          	addw	a5,a5,-48
    80000c54:	0007879b          	sext.w	a5,a5
    80000c58:	fcf42223          	sw	a5,-60(s0)
    80000c5c:	fec42783          	lw	a5,-20(s0)
    80000c60:	00078713          	mv	a4,a5
    80000c64:	00070793          	mv	a5,a4
    80000c68:	0027979b          	sllw	a5,a5,0x2
    80000c6c:	00e787bb          	addw	a5,a5,a4
    80000c70:	0017979b          	sllw	a5,a5,0x1
    80000c74:	0007879b          	sext.w	a5,a5
    80000c78:	fc442703          	lw	a4,-60(s0)
    80000c7c:	00f707bb          	addw	a5,a4,a5
    80000c80:	fef42623          	sw	a5,-20(s0)
    80000c84:	fe842783          	lw	a5,-24(s0)
    80000c88:	0017879b          	addw	a5,a5,1
    80000c8c:	fef42423          	sw	a5,-24(s0)
    80000c90:	f91ff06f          	j	80000c20 <_bpf_helper_ext_0006+0xdc>
    80000c94:	00000013          	nop
    80000c98:	fe842783          	lw	a5,-24(s0)
    80000c9c:	fe043703          	ld	a4,-32(s0)
    80000ca0:	00f707b3          	add	a5,a4,a5
    80000ca4:	0007c783          	lbu	a5,0(a5)
    80000ca8:	00078713          	mv	a4,a5
    80000cac:	06400793          	li	a5,100
    80000cb0:	02f71e63          	bne	a4,a5,80000cec <_bpf_helper_ext_0006+0x1a8>
    80000cb4:	fb843783          	ld	a5,-72(s0)
    80000cb8:	00878713          	add	a4,a5,8
    80000cbc:	fae43c23          	sd	a4,-72(s0)
    80000cc0:	0007a783          	lw	a5,0(a5)
    80000cc4:	fcf42423          	sw	a5,-56(s0)
    80000cc8:	f9840713          	add	a4,s0,-104
    80000ccc:	fc842783          	lw	a5,-56(s0)
    80000cd0:	00070593          	mv	a1,a4
    80000cd4:	00078513          	mv	a0,a5
    80000cd8:	831ff0ef          	jal	80000508 <itoa>
    80000cdc:	f9840793          	add	a5,s0,-104
    80000ce0:	00078513          	mv	a0,a5
    80000ce4:	f08ff0ef          	jal	800003ec <uart_puts>
    80000ce8:	0d80006f          	j	80000dc0 <_bpf_helper_ext_0006+0x27c>
    80000cec:	fe842783          	lw	a5,-24(s0)
    80000cf0:	fe043703          	ld	a4,-32(s0)
    80000cf4:	00f707b3          	add	a5,a4,a5
    80000cf8:	0007c783          	lbu	a5,0(a5)
    80000cfc:	00078713          	mv	a4,a5
    80000d00:	07800793          	li	a5,120
    80000d04:	04f71263          	bne	a4,a5,80000d48 <_bpf_helper_ext_0006+0x204>
    80000d08:	fb843783          	ld	a5,-72(s0)
    80000d0c:	00878713          	add	a4,a5,8
    80000d10:	fae43c23          	sd	a4,-72(s0)
    80000d14:	0007a783          	lw	a5,0(a5)
    80000d18:	fcf42623          	sw	a5,-52(s0)
    80000d1c:	fec42683          	lw	a3,-20(s0)
    80000d20:	f9840713          	add	a4,s0,-104
    80000d24:	fcc42783          	lw	a5,-52(s0)
    80000d28:	00068613          	mv	a2,a3
    80000d2c:	00070593          	mv	a1,a4
    80000d30:	00078513          	mv	a0,a5
    80000d34:	8d1ff0ef          	jal	80000604 <hextoa>
    80000d38:	f9840793          	add	a5,s0,-104
    80000d3c:	00078513          	mv	a0,a5
    80000d40:	eacff0ef          	jal	800003ec <uart_puts>
    80000d44:	07c0006f          	j	80000dc0 <_bpf_helper_ext_0006+0x27c>
    80000d48:	fe842783          	lw	a5,-24(s0)
    80000d4c:	fe043703          	ld	a4,-32(s0)
    80000d50:	00f707b3          	add	a5,a4,a5
    80000d54:	0007c783          	lbu	a5,0(a5)
    80000d58:	00078713          	mv	a4,a5
    80000d5c:	07300793          	li	a5,115
    80000d60:	02f71263          	bne	a4,a5,80000d84 <_bpf_helper_ext_0006+0x240>
    80000d64:	fb843783          	ld	a5,-72(s0)
    80000d68:	00878713          	add	a4,a5,8
    80000d6c:	fae43c23          	sd	a4,-72(s0)
    80000d70:	0007b783          	ld	a5,0(a5)
    80000d74:	fcf43823          	sd	a5,-48(s0)
    80000d78:	fd043503          	ld	a0,-48(s0)
    80000d7c:	e70ff0ef          	jal	800003ec <uart_puts>
    80000d80:	0400006f          	j	80000dc0 <_bpf_helper_ext_0006+0x27c>
    80000d84:	fe842783          	lw	a5,-24(s0)
    80000d88:	fe043703          	ld	a4,-32(s0)
    80000d8c:	00f707b3          	add	a5,a4,a5
    80000d90:	0007c783          	lbu	a5,0(a5)
    80000d94:	00078713          	mv	a4,a5
    80000d98:	06300793          	li	a5,99
    80000d9c:	02f71263          	bne	a4,a5,80000dc0 <_bpf_helper_ext_0006+0x27c>
    80000da0:	fb843783          	ld	a5,-72(s0)
    80000da4:	00878713          	add	a4,a5,8
    80000da8:	fae43c23          	sd	a4,-72(s0)
    80000dac:	0007a783          	lw	a5,0(a5)
    80000db0:	fcf40da3          	sb	a5,-37(s0)
    80000db4:	fdb44783          	lbu	a5,-37(s0)
    80000db8:	00078513          	mv	a0,a5
    80000dbc:	ddcff0ef          	jal	80000398 <uart_putc>
    80000dc0:	fe042623          	sw	zero,-20(s0)
    80000dc4:	fe842783          	lw	a5,-24(s0)
    80000dc8:	0017879b          	addw	a5,a5,1
    80000dcc:	fef42423          	sw	a5,-24(s0)
    80000dd0:	de9ff06f          	j	80000bb8 <_bpf_helper_ext_0006+0x74>
    80000dd4:	00000013          	nop
    80000dd8:	00000793          	li	a5,0
    80000ddc:	00078513          	mv	a0,a5
    80000de0:	07813083          	ld	ra,120(sp)
    80000de4:	07013403          	ld	s0,112(sp)
    80000de8:	0c010113          	add	sp,sp,192
    80000dec:	00008067          	ret

0000000080000df0 <bpf_main>:
    80000df0:	81010113          	add	sp,sp,-2032
    80000df4:	7e113423          	sd	ra,2024(sp)
    80000df8:	00004637          	lui	a2,0x4
    80000dfc:	2d06061b          	addw	a2,a2,720 # 42d0 <_start-0x7fffbd30>
    80000e00:	40c10133          	sub	sp,sp,a2
    80000e04:	00004637          	lui	a2,0x4
    80000e08:	000016b7          	lui	a3,0x1
    80000e0c:	a106869b          	addw	a3,a3,-1520 # a10 <_start-0x7ffff5f0>
    80000e10:	00d106b3          	add	a3,sp,a3
    80000e14:	00c68633          	add	a2,a3,a2
    80000e18:	000056b7          	lui	a3,0x5
    80000e1c:	a606869b          	addw	a3,a3,-1440 # 4a60 <_start-0x7fffb5a0>
    80000e20:	00d106b3          	add	a3,sp,a3
    80000e24:	00c6b023          	sd	a2,0(a3)
    80000e28:	00005637          	lui	a2,0x5
    80000e2c:	aa86061b          	addw	a2,a2,-1368 # 4aa8 <_start-0x7fffb558>
    80000e30:	00c10633          	add	a2,sp,a2
    80000e34:	00a63023          	sd	a0,0(a2)
    80000e38:	00005537          	lui	a0,0x5
    80000e3c:	aa05051b          	addw	a0,a0,-1376 # 4aa0 <_start-0x7fffb560>
    80000e40:	00a10533          	add	a0,sp,a0
    80000e44:	00b53023          	sd	a1,0(a0)
    80000e48:	00013423          	sd	zero,8(sp)
    80000e4c:	00005537          	lui	a0,0x5
    80000e50:	a985051b          	addw	a0,a0,-1384 # 4a98 <_start-0x7fffb568>
    80000e54:	00a10533          	add	a0,sp,a0
    80000e58:	00053603          	ld	a2,0(a0)
    80000e5c:	00005537          	lui	a0,0x5
    80000e60:	a905051b          	addw	a0,a0,-1392 # 4a90 <_start-0x7fffb570>
    80000e64:	00a10533          	add	a0,sp,a0
    80000e68:	00053683          	ld	a3,0(a0)
    80000e6c:	00005537          	lui	a0,0x5
    80000e70:	a885051b          	addw	a0,a0,-1400 # 4a88 <_start-0x7fffb578>
    80000e74:	00a10533          	add	a0,sp,a0
    80000e78:	00053703          	ld	a4,0(a0)
    80000e7c:	01600513          	li	a0,22
    80000e80:	000055b7          	lui	a1,0x5
    80000e84:	aa05859b          	addw	a1,a1,-1376 # 4aa0 <_start-0x7fffb560>
    80000e88:	00b105b3          	add	a1,sp,a1
    80000e8c:	00a5b023          	sd	a0,0(a1)
    80000e90:	00005537          	lui	a0,0x5
    80000e94:	aa85051b          	addw	a0,a0,-1368 # 4aa8 <_start-0x7fffb558>
    80000e98:	00a10533          	add	a0,sp,a0
    80000e9c:	00053023          	sd	zero,0(a0)
    80000ea0:	01600593          	li	a1,22
    80000ea4:	00000513          	li	a0,0
    80000ea8:	00000097          	auipc	ra,0x0
    80000eac:	c9c080e7          	jalr	-868(ra) # 80000b44 <_bpf_helper_ext_0006>
    80000eb0:	000055b7          	lui	a1,0x5
    80000eb4:	ab05859b          	addw	a1,a1,-1360 # 4ab0 <_start-0x7fffb550>
    80000eb8:	00b105b3          	add	a1,sp,a1
    80000ebc:	00a5b023          	sd	a0,0(a1)
    80000ec0:	00813503          	ld	a0,8(sp)
    80000ec4:	00500593          	li	a1,5
    80000ec8:	00005637          	lui	a2,0x5
    80000ecc:	ab06061b          	addw	a2,a2,-1360 # 4ab0 <_start-0x7fffb550>
    80000ed0:	00c10633          	add	a2,sp,a2
    80000ed4:	00b63023          	sd	a1,0(a2)
    80000ed8:	0c050863          	beqz	a0,80000fa8 <bpf_main+0x1b8>
    80000edc:	00813503          	ld	a0,8(sp)
    80000ee0:	00351593          	sll	a1,a0,0x3
    80000ee4:	01010613          	add	a2,sp,16
    80000ee8:	00c585b3          	add	a1,a1,a2
    80000eec:	ff45e683          	lwu	a3,-12(a1)
    80000ef0:	ff05e703          	lwu	a4,-16(a1)
    80000ef4:	02069693          	sll	a3,a3,0x20
    80000ef8:	fec5e783          	lwu	a5,-20(a1)
    80000efc:	fe85e803          	lwu	a6,-24(a1)
    80000f00:	00e6e6b3          	or	a3,a3,a4
    80000f04:	00005737          	lui	a4,0x5
    80000f08:	a807071b          	addw	a4,a4,-1408 # 4a80 <_start-0x7fffb580>
    80000f0c:	00e10733          	add	a4,sp,a4
    80000f10:	00d73023          	sd	a3,0(a4)
    80000f14:	02079693          	sll	a3,a5,0x20
    80000f18:	0106e6b3          	or	a3,a3,a6
    80000f1c:	fe45e703          	lwu	a4,-28(a1)
    80000f20:	ff85b783          	ld	a5,-8(a1)
    80000f24:	00005837          	lui	a6,0x5
    80000f28:	a788081b          	addw	a6,a6,-1416 # 4a78 <_start-0x7fffb588>
    80000f2c:	01010833          	add	a6,sp,a6
    80000f30:	00d83023          	sd	a3,0(a6)
    80000f34:	fe05e583          	lwu	a1,-32(a1)
    80000f38:	02071693          	sll	a3,a4,0x20
    80000f3c:	ffb50513          	add	a0,a0,-5
    80000f40:	00351713          	sll	a4,a0,0x3
    80000f44:	00e60633          	add	a2,a2,a4
    80000f48:	00466703          	lwu	a4,4(a2)
    80000f4c:	00b6e5b3          	or	a1,a3,a1
    80000f50:	00066603          	lwu	a2,0(a2)
    80000f54:	000056b7          	lui	a3,0x5
    80000f58:	a706869b          	addw	a3,a3,-1424 # 4a70 <_start-0x7fffb590>
    80000f5c:	00d106b3          	add	a3,sp,a3
    80000f60:	00b6b023          	sd	a1,0(a3)
    80000f64:	02071593          	sll	a1,a4,0x20
    80000f68:	000056b7          	lui	a3,0x5
    80000f6c:	a606869b          	addw	a3,a3,-1440 # 4a60 <_start-0x7fffb5a0>
    80000f70:	00d106b3          	add	a3,sp,a3
    80000f74:	0006b683          	ld	a3,0(a3)
    80000f78:	00c5e5b3          	or	a1,a1,a2
    80000f7c:	00005637          	lui	a2,0x5
    80000f80:	a686061b          	addw	a2,a2,-1432 # 4a68 <_start-0x7fffb598>
    80000f84:	00c10633          	add	a2,sp,a2
    80000f88:	00b63023          	sd	a1,0(a2)
    80000f8c:	00a13423          	sd	a0,8(sp)
    80000f90:	04068513          	add	a0,a3,64
    80000f94:	000055b7          	lui	a1,0x5
    80000f98:	a605859b          	addw	a1,a1,-1440 # 4a60 <_start-0x7fffb5a0>
    80000f9c:	00b105b3          	add	a1,sp,a1
    80000fa0:	00a5b023          	sd	a0,0(a1)
    80000fa4:	00078067          	jr	a5
    80000fa8:	00005537          	lui	a0,0x5
    80000fac:	ab05051b          	addw	a0,a0,-1360 # 4ab0 <_start-0x7fffb550>
    80000fb0:	00a10533          	add	a0,sp,a0
    80000fb4:	00053503          	ld	a0,0(a0)
    80000fb8:	000045b7          	lui	a1,0x4
    80000fbc:	2d05859b          	addw	a1,a1,720 # 42d0 <_start-0x7fffbd30>
    80000fc0:	00b10133          	add	sp,sp,a1
    80000fc4:	7e813083          	ld	ra,2024(sp)
    80000fc8:	7f010113          	add	sp,sp,2032
    80000fcc:	00008067          	ret
