
.output/hello.elf:     file format elf64-littleriscv


Disassembly of section .text:

0000000080000000 <_start>:
    80000000:	00006117          	auipc	sp,0x6
    80000004:	2d010113          	addi	sp,sp,720 # 800062d0 <__stack_top>
    80000008:	00010433          	add	s0,sp,zero
    8000000c:	17c000ef          	jal	80000188 <main>

0000000080000010 <loop>:
    80000010:	0000006f          	j	80000010 <loop>

0000000080000014 <load_packet_from_mem>:
    80000014:	fb010113          	addi	sp,sp,-80
    80000018:	04113423          	sd	ra,72(sp)
    8000001c:	04813023          	sd	s0,64(sp)
    80000020:	05010413          	addi	s0,sp,80
    80000024:	fca43423          	sd	a0,-56(s0)
    80000028:	fcb43023          	sd	a1,-64(s0)
    8000002c:	fac43c23          	sd	a2,-72(s0)
    80000030:	00002797          	auipc	a5,0x2
    80000034:	1ec78793          	addi	a5,a5,492 # 8000221c <my_data_region_start>
    80000038:	0007c783          	lbu	a5,0(a5)
    8000003c:	40f007b3          	neg	a5,a5
    80000040:	fc843703          	ld	a4,-56(s0)
    80000044:	00f707b3          	add	a5,a4,a5
    80000048:	0007871b          	sext.w	a4,a5
    8000004c:	fb843783          	ld	a5,-72(s0)
    80000050:	00e7a023          	sw	a4,0(a5)
    80000054:	fc843783          	ld	a5,-56(s0)
    80000058:	fef43423          	sd	a5,-24(s0)
    8000005c:	fc043c23          	sd	zero,-40(s0)
    80000060:	fe042223          	sw	zero,-28(s0)
    80000064:	fe042023          	sw	zero,-32(s0)
    80000068:	00002517          	auipc	a0,0x2
    8000006c:	00050513          	mv	a0,a0
    80000070:	33c000ef          	jal	800003ac <uart_puts>
    80000074:	fe843703          	ld	a4,-24(s0)
    80000078:	fc043783          	ld	a5,-64(s0)
    8000007c:	00f71c63          	bne	a4,a5,80000094 <load_packet_from_mem+0x80>
    80000080:	00002517          	auipc	a0,0x2
    80000084:	00850513          	addi	a0,a0,8 # 80002088 <rodata_bpf_end+0x26>
    80000088:	324000ef          	jal	800003ac <uart_puts>
    8000008c:	ffd00793          	li	a5,-3
    80000090:	0e40006f          	j	80000174 <load_packet_from_mem+0x160>
    80000094:	fe843783          	ld	a5,-24(s0)
    80000098:	0007d783          	lhu	a5,0(a5)
    8000009c:	0007871b          	sext.w	a4,a5
    800000a0:	000107b7          	lui	a5,0x10
    800000a4:	fff78793          	addi	a5,a5,-1 # ffff <_start-0x7fff0001>
    800000a8:	00f71863          	bne	a4,a5,800000b8 <load_packet_from_mem+0xa4>
    800000ac:	fe042783          	lw	a5,-32(s0)
    800000b0:	0017879b          	addiw	a5,a5,1
    800000b4:	fef42023          	sw	a5,-32(s0)
    800000b8:	fe442783          	lw	a5,-28(s0)
    800000bc:	00f7f793          	andi	a5,a5,15
    800000c0:	0007879b          	sext.w	a5,a5
    800000c4:	00079a63          	bnez	a5,800000d8 <load_packet_from_mem+0xc4>
    800000c8:	fe843583          	ld	a1,-24(s0)
    800000cc:	00002517          	auipc	a0,0x2
    800000d0:	fd450513          	addi	a0,a0,-44 # 800020a0 <rodata_bpf_end+0x3e>
    800000d4:	6fc000ef          	jal	800007d0 <printf>
    800000d8:	fe843783          	ld	a5,-24(s0)
    800000dc:	0007d783          	lhu	a5,0(a5)
    800000e0:	0007879b          	sext.w	a5,a5
    800000e4:	00078593          	mv	a1,a5
    800000e8:	00002517          	auipc	a0,0x2
    800000ec:	fc850513          	addi	a0,a0,-56 # 800020b0 <rodata_bpf_end+0x4e>
    800000f0:	6e0000ef          	jal	800007d0 <printf>
    800000f4:	fe843783          	ld	a5,-24(s0)
    800000f8:	00278793          	addi	a5,a5,2
    800000fc:	fef43423          	sd	a5,-24(s0)
    80000100:	fe442783          	lw	a5,-28(s0)
    80000104:	0017879b          	addiw	a5,a5,1
    80000108:	fef42223          	sw	a5,-28(s0)
    8000010c:	fe042783          	lw	a5,-32(s0)
    80000110:	0007871b          	sext.w	a4,a5
    80000114:	00300793          	li	a5,3
    80000118:	f4e7dee3          	bge	a5,a4,80000074 <load_packet_from_mem+0x60>
    8000011c:	00002797          	auipc	a5,0x2
    80000120:	10078793          	addi	a5,a5,256 # 8000221c <my_data_region_start>
    80000124:	0007c783          	lbu	a5,0(a5)
    80000128:	00179793          	slli	a5,a5,0x1
    8000012c:	40f007b3          	neg	a5,a5
    80000130:	fe843703          	ld	a4,-24(s0)
    80000134:	00f707b3          	add	a5,a4,a5
    80000138:	0007871b          	sext.w	a4,a5
    8000013c:	fb843783          	ld	a5,-72(s0)
    80000140:	00e7a223          	sw	a4,4(a5)
    80000144:	fb843783          	ld	a5,-72(s0)
    80000148:	06300713          	li	a4,99
    8000014c:	00e7a623          	sw	a4,12(a5)
    80000150:	fb843783          	ld	a5,-72(s0)
    80000154:	0007a823          	sw	zero,16(a5)
    80000158:	fb843783          	ld	a5,-72(s0)
    8000015c:	0007aa23          	sw	zero,20(a5)
    80000160:	fb843783          	ld	a5,-72(s0)
    80000164:	0007a423          	sw	zero,8(a5)
    80000168:	00002517          	auipc	a0,0x2
    8000016c:	f5050513          	addi	a0,a0,-176 # 800020b8 <rodata_bpf_end+0x56>
    80000170:	23c000ef          	jal	800003ac <uart_puts>
    80000174:	00078513          	mv	a0,a5
    80000178:	04813083          	ld	ra,72(sp)
    8000017c:	04013403          	ld	s0,64(sp)
    80000180:	05010113          	addi	sp,sp,80
    80000184:	00008067          	ret

0000000080000188 <main>:
    80000188:	fa010113          	addi	sp,sp,-96
    8000018c:	04113c23          	sd	ra,88(sp)
    80000190:	04813823          	sd	s0,80(sp)
    80000194:	06010413          	addi	s0,sp,96
    80000198:	100007b7          	lui	a5,0x10000
    8000019c:	00278793          	addi	a5,a5,2 # 10000002 <_start-0x6ffffffe>
    800001a0:	00100713          	li	a4,1
    800001a4:	00e78023          	sb	a4,0(a5)
    800001a8:	00002517          	auipc	a0,0x2
    800001ac:	f2850513          	addi	a0,a0,-216 # 800020d0 <rodata_bpf_end+0x6e>
    800001b0:	1fc000ef          	jal	800003ac <uart_puts>
    800001b4:	00002797          	auipc	a5,0x2
    800001b8:	f9c78793          	addi	a5,a5,-100 # 80002150 <rodata_bpf_end+0xee>
    800001bc:	0007c703          	lbu	a4,0(a5)
    800001c0:	00070f13          	mv	t5,a4
    800001c4:	0017c703          	lbu	a4,1(a5)
    800001c8:	00070e93          	mv	t4,a4
    800001cc:	0027c703          	lbu	a4,2(a5)
    800001d0:	00070e13          	mv	t3,a4
    800001d4:	0037c703          	lbu	a4,3(a5)
    800001d8:	00070313          	mv	t1,a4
    800001dc:	0047c703          	lbu	a4,4(a5)
    800001e0:	00070893          	mv	a7,a4
    800001e4:	0057c703          	lbu	a4,5(a5)
    800001e8:	00070813          	mv	a6,a4
    800001ec:	0067c703          	lbu	a4,6(a5)
    800001f0:	00070513          	mv	a0,a4
    800001f4:	0077c703          	lbu	a4,7(a5)
    800001f8:	00070593          	mv	a1,a4
    800001fc:	0087c703          	lbu	a4,8(a5)
    80000200:	00070613          	mv	a2,a4
    80000204:	0097c703          	lbu	a4,9(a5)
    80000208:	00070693          	mv	a3,a4
    8000020c:	00a7c703          	lbu	a4,10(a5)
    80000210:	00b7c783          	lbu	a5,11(a5)
    80000214:	fbe40c23          	sb	t5,-72(s0)
    80000218:	fbd40ca3          	sb	t4,-71(s0)
    8000021c:	fbc40d23          	sb	t3,-70(s0)
    80000220:	fa640da3          	sb	t1,-69(s0)
    80000224:	fb140e23          	sb	a7,-68(s0)
    80000228:	fb040ea3          	sb	a6,-67(s0)
    8000022c:	faa40f23          	sb	a0,-66(s0)
    80000230:	fab40fa3          	sb	a1,-65(s0)
    80000234:	fcc40023          	sb	a2,-64(s0)
    80000238:	fcd400a3          	sb	a3,-63(s0)
    8000023c:	fce40123          	sb	a4,-62(s0)
    80000240:	fcf401a3          	sb	a5,-61(s0)
    80000244:	fc042223          	sw	zero,-60(s0)
    80000248:	fc042423          	sw	zero,-56(s0)
    8000024c:	fc042623          	sw	zero,-52(s0)
    80000250:	fc042823          	sw	zero,-48(s0)
    80000254:	fc042a23          	sw	zero,-44(s0)
    80000258:	fc042c23          	sw	zero,-40(s0)
    8000025c:	fc042e23          	sw	zero,-36(s0)
    80000260:	fe042023          	sw	zero,-32(s0)
    80000264:	fe042223          	sw	zero,-28(s0)
    80000268:	fe041423          	sh	zero,-24(s0)
    8000026c:	fb840793          	addi	a5,s0,-72
    80000270:	00002597          	auipc	a1,0x2
    80000274:	e7858593          	addi	a1,a1,-392 # 800020e8 <rodata_bpf_end+0x86>
    80000278:	00078513          	mv	a0,a5
    8000027c:	4ec000ef          	jal	80000768 <strcpy>
    80000280:	fb840793          	addi	a5,s0,-72
    80000284:	00002597          	auipc	a1,0x2
    80000288:	f9858593          	addi	a1,a1,-104 # 8000221c <my_data_region_start>
    8000028c:	00078513          	mv	a0,a5
    80000290:	540000ef          	jal	800007d0 <printf>
    80000294:	fb840793          	addi	a5,s0,-72
    80000298:	00002597          	auipc	a1,0x2
    8000029c:	e6858593          	addi	a1,a1,-408 # 80002100 <rodata_bpf_end+0x9e>
    800002a0:	00078513          	mv	a0,a5
    800002a4:	4c4000ef          	jal	80000768 <strcpy>
    800002a8:	fb840793          	addi	a5,s0,-72
    800002ac:	00002597          	auipc	a1,0x2
    800002b0:	01858593          	addi	a1,a1,24 # 800022c4 <my_data_region_end>
    800002b4:	00078513          	mv	a0,a5
    800002b8:	518000ef          	jal	800007d0 <printf>
    800002bc:	fa040793          	addi	a5,s0,-96
    800002c0:	00078613          	mv	a2,a5
    800002c4:	00002597          	auipc	a1,0x2
    800002c8:	00058593          	mv	a1,a1
    800002cc:	00002517          	auipc	a0,0x2
    800002d0:	f5050513          	addi	a0,a0,-176 # 8000221c <my_data_region_start>
    800002d4:	d41ff0ef          	jal	80000014 <load_packet_from_mem>
    800002d8:	fb840793          	addi	a5,s0,-72
    800002dc:	00002597          	auipc	a1,0x2
    800002e0:	e3c58593          	addi	a1,a1,-452 # 80002118 <rodata_bpf_end+0xb6>
    800002e4:	00078513          	mv	a0,a5
    800002e8:	480000ef          	jal	80000768 <strcpy>
    800002ec:	fa042703          	lw	a4,-96(s0)
    800002f0:	fb840793          	addi	a5,s0,-72
    800002f4:	00070593          	mv	a1,a4
    800002f8:	00078513          	mv	a0,a5
    800002fc:	4d4000ef          	jal	800007d0 <printf>
    80000300:	fb840793          	addi	a5,s0,-72
    80000304:	00002597          	auipc	a1,0x2
    80000308:	e2c58593          	addi	a1,a1,-468 # 80002130 <rodata_bpf_end+0xce>
    8000030c:	00078513          	mv	a0,a5
    80000310:	458000ef          	jal	80000768 <strcpy>
    80000314:	fa442703          	lw	a4,-92(s0)
    80000318:	fb840793          	addi	a5,s0,-72
    8000031c:	00070593          	mv	a1,a4
    80000320:	00078513          	mv	a0,a5
    80000324:	4ac000ef          	jal	800007d0 <printf>
    80000328:	fa040793          	addi	a5,s0,-96
    8000032c:	01800593          	li	a1,24
    80000330:	00078513          	mv	a0,a5
    80000334:	2d9000ef          	jal	80000e0c <bpf_main>
    80000338:	00050793          	mv	a5,a0
    8000033c:	fef42623          	sw	a5,-20(s0)
    80000340:	fec42783          	lw	a5,-20(s0)
    80000344:	00078593          	mv	a1,a5
    80000348:	00002517          	auipc	a0,0x2
    8000034c:	df850513          	addi	a0,a0,-520 # 80002140 <rodata_bpf_end+0xde>
    80000350:	480000ef          	jal	800007d0 <printf>
    80000354:	0000006f          	j	80000354 <main+0x1cc>

0000000080000358 <uart_putc>:
    80000358:	fe010113          	addi	sp,sp,-32
    8000035c:	00813c23          	sd	s0,24(sp)
    80000360:	02010413          	addi	s0,sp,32
    80000364:	00050793          	mv	a5,a0
    80000368:	fef407a3          	sb	a5,-17(s0)
    8000036c:	00000013          	nop
    80000370:	100007b7          	lui	a5,0x10000
    80000374:	00578793          	addi	a5,a5,5 # 10000005 <_start-0x6ffffffb>
    80000378:	0007c783          	lbu	a5,0(a5)
    8000037c:	0ff7f793          	zext.b	a5,a5
    80000380:	0007879b          	sext.w	a5,a5
    80000384:	0207f793          	andi	a5,a5,32
    80000388:	0007879b          	sext.w	a5,a5
    8000038c:	fe0782e3          	beqz	a5,80000370 <uart_putc+0x18>
    80000390:	100007b7          	lui	a5,0x10000
    80000394:	fef44703          	lbu	a4,-17(s0)
    80000398:	00e78023          	sb	a4,0(a5) # 10000000 <_start-0x70000000>
    8000039c:	00000013          	nop
    800003a0:	01813403          	ld	s0,24(sp)
    800003a4:	02010113          	addi	sp,sp,32
    800003a8:	00008067          	ret

00000000800003ac <uart_puts>:
    800003ac:	fd010113          	addi	sp,sp,-48
    800003b0:	02113423          	sd	ra,40(sp)
    800003b4:	02813023          	sd	s0,32(sp)
    800003b8:	03010413          	addi	s0,sp,48
    800003bc:	fca43c23          	sd	a0,-40(s0)
    800003c0:	fe042623          	sw	zero,-20(s0)
    800003c4:	0280006f          	j	800003ec <uart_puts+0x40>
    800003c8:	fd843783          	ld	a5,-40(s0)
    800003cc:	00178713          	addi	a4,a5,1
    800003d0:	fce43c23          	sd	a4,-40(s0)
    800003d4:	0007c783          	lbu	a5,0(a5)
    800003d8:	00078513          	mv	a0,a5
    800003dc:	f7dff0ef          	jal	80000358 <uart_putc>
    800003e0:	fec42783          	lw	a5,-20(s0)
    800003e4:	0017879b          	addiw	a5,a5,1
    800003e8:	fef42623          	sw	a5,-20(s0)
    800003ec:	fd843783          	ld	a5,-40(s0)
    800003f0:	0007c783          	lbu	a5,0(a5)
    800003f4:	fc079ae3          	bnez	a5,800003c8 <uart_puts+0x1c>
    800003f8:	fec42783          	lw	a5,-20(s0)
    800003fc:	00078513          	mv	a0,a5
    80000400:	02813083          	ld	ra,40(sp)
    80000404:	02013403          	ld	s0,32(sp)
    80000408:	03010113          	addi	sp,sp,48
    8000040c:	00008067          	ret

0000000080000410 <reverse_string>:
    80000410:	fd010113          	addi	sp,sp,-48
    80000414:	02813423          	sd	s0,40(sp)
    80000418:	03010413          	addi	s0,sp,48
    8000041c:	fca43c23          	sd	a0,-40(s0)
    80000420:	00058793          	mv	a5,a1
    80000424:	fcf42a23          	sw	a5,-44(s0)
    80000428:	fe042623          	sw	zero,-20(s0)
    8000042c:	fd442783          	lw	a5,-44(s0)
    80000430:	fff7879b          	addiw	a5,a5,-1
    80000434:	fef42423          	sw	a5,-24(s0)
    80000438:	0640006f          	j	8000049c <reverse_string+0x8c>
    8000043c:	fec42783          	lw	a5,-20(s0)
    80000440:	fd843703          	ld	a4,-40(s0)
    80000444:	00f707b3          	add	a5,a4,a5
    80000448:	0007c783          	lbu	a5,0(a5)
    8000044c:	fef403a3          	sb	a5,-25(s0)
    80000450:	fe842783          	lw	a5,-24(s0)
    80000454:	fd843703          	ld	a4,-40(s0)
    80000458:	00f70733          	add	a4,a4,a5
    8000045c:	fec42783          	lw	a5,-20(s0)
    80000460:	fd843683          	ld	a3,-40(s0)
    80000464:	00f687b3          	add	a5,a3,a5
    80000468:	00074703          	lbu	a4,0(a4)
    8000046c:	00e78023          	sb	a4,0(a5)
    80000470:	fe842783          	lw	a5,-24(s0)
    80000474:	fd843703          	ld	a4,-40(s0)
    80000478:	00f707b3          	add	a5,a4,a5
    8000047c:	fe744703          	lbu	a4,-25(s0)
    80000480:	00e78023          	sb	a4,0(a5)
    80000484:	fec42783          	lw	a5,-20(s0)
    80000488:	0017879b          	addiw	a5,a5,1
    8000048c:	fef42623          	sw	a5,-20(s0)
    80000490:	fe842783          	lw	a5,-24(s0)
    80000494:	fff7879b          	addiw	a5,a5,-1
    80000498:	fef42423          	sw	a5,-24(s0)
    8000049c:	fec42783          	lw	a5,-20(s0)
    800004a0:	00078713          	mv	a4,a5
    800004a4:	fe842783          	lw	a5,-24(s0)
    800004a8:	0007071b          	sext.w	a4,a4
    800004ac:	0007879b          	sext.w	a5,a5
    800004b0:	f8f746e3          	blt	a4,a5,8000043c <reverse_string+0x2c>
    800004b4:	00000013          	nop
    800004b8:	00000013          	nop
    800004bc:	02813403          	ld	s0,40(sp)
    800004c0:	03010113          	addi	sp,sp,48
    800004c4:	00008067          	ret

00000000800004c8 <itoa>:
    800004c8:	fd010113          	addi	sp,sp,-48
    800004cc:	02113423          	sd	ra,40(sp)
    800004d0:	02813023          	sd	s0,32(sp)
    800004d4:	03010413          	addi	s0,sp,48
    800004d8:	00050793          	mv	a5,a0
    800004dc:	fcb43823          	sd	a1,-48(s0)
    800004e0:	fcf42e23          	sw	a5,-36(s0)
    800004e4:	fdc42783          	lw	a5,-36(s0)
    800004e8:	fef42423          	sw	a5,-24(s0)
    800004ec:	fe842783          	lw	a5,-24(s0)
    800004f0:	0007879b          	sext.w	a5,a5
    800004f4:	0007d863          	bgez	a5,80000504 <itoa+0x3c>
    800004f8:	fdc42783          	lw	a5,-36(s0)
    800004fc:	40f007bb          	negw	a5,a5
    80000500:	fcf42e23          	sw	a5,-36(s0)
    80000504:	fe042623          	sw	zero,-20(s0)
    80000508:	fdc42783          	lw	a5,-36(s0)
    8000050c:	00078713          	mv	a4,a5
    80000510:	00a00793          	li	a5,10
    80000514:	02f767bb          	remw	a5,a4,a5
    80000518:	0007879b          	sext.w	a5,a5
    8000051c:	0ff7f713          	zext.b	a4,a5
    80000520:	fec42783          	lw	a5,-20(s0)
    80000524:	0017869b          	addiw	a3,a5,1
    80000528:	fed42623          	sw	a3,-20(s0)
    8000052c:	00078693          	mv	a3,a5
    80000530:	fd043783          	ld	a5,-48(s0)
    80000534:	00d787b3          	add	a5,a5,a3
    80000538:	0307071b          	addiw	a4,a4,48
    8000053c:	0ff77713          	zext.b	a4,a4
    80000540:	00e78023          	sb	a4,0(a5)
    80000544:	fdc42783          	lw	a5,-36(s0)
    80000548:	00078713          	mv	a4,a5
    8000054c:	00a00793          	li	a5,10
    80000550:	02f747bb          	divw	a5,a4,a5
    80000554:	fcf42e23          	sw	a5,-36(s0)
    80000558:	fdc42783          	lw	a5,-36(s0)
    8000055c:	0007879b          	sext.w	a5,a5
    80000560:	faf044e3          	bgtz	a5,80000508 <itoa+0x40>
    80000564:	fe842783          	lw	a5,-24(s0)
    80000568:	0007879b          	sext.w	a5,a5
    8000056c:	0207d263          	bgez	a5,80000590 <itoa+0xc8>
    80000570:	fec42783          	lw	a5,-20(s0)
    80000574:	0017871b          	addiw	a4,a5,1
    80000578:	fee42623          	sw	a4,-20(s0)
    8000057c:	00078713          	mv	a4,a5
    80000580:	fd043783          	ld	a5,-48(s0)
    80000584:	00e787b3          	add	a5,a5,a4
    80000588:	02d00713          	li	a4,45
    8000058c:	00e78023          	sb	a4,0(a5)
    80000590:	fec42783          	lw	a5,-20(s0)
    80000594:	fd043703          	ld	a4,-48(s0)
    80000598:	00f707b3          	add	a5,a4,a5
    8000059c:	00078023          	sb	zero,0(a5)
    800005a0:	fec42783          	lw	a5,-20(s0)
    800005a4:	00078593          	mv	a1,a5
    800005a8:	fd043503          	ld	a0,-48(s0)
    800005ac:	e65ff0ef          	jal	80000410 <reverse_string>
    800005b0:	00000013          	nop
    800005b4:	02813083          	ld	ra,40(sp)
    800005b8:	02013403          	ld	s0,32(sp)
    800005bc:	03010113          	addi	sp,sp,48
    800005c0:	00008067          	ret

00000000800005c4 <hextoa>:
    800005c4:	fa010113          	addi	sp,sp,-96
    800005c8:	04813c23          	sd	s0,88(sp)
    800005cc:	06010413          	addi	s0,sp,96
    800005d0:	00050793          	mv	a5,a0
    800005d4:	fab43023          	sd	a1,-96(s0)
    800005d8:	00060713          	mv	a4,a2
    800005dc:	faf42623          	sw	a5,-84(s0)
    800005e0:	00070793          	mv	a5,a4
    800005e4:	faf42423          	sw	a5,-88(s0)
    800005e8:	00002797          	auipc	a5,0x2
    800005ec:	b7878793          	addi	a5,a5,-1160 # 80002160 <rodata_bpf_end+0xfe>
    800005f0:	0007b703          	ld	a4,0(a5)
    800005f4:	fae43c23          	sd	a4,-72(s0)
    800005f8:	0087b703          	ld	a4,8(a5)
    800005fc:	fce43023          	sd	a4,-64(s0)
    80000600:	0107c783          	lbu	a5,16(a5)
    80000604:	fcf40423          	sb	a5,-56(s0)
    80000608:	fa043783          	ld	a5,-96(s0)
    8000060c:	fef43423          	sd	a5,-24(s0)
    80000610:	fa043783          	ld	a5,-96(s0)
    80000614:	fef43023          	sd	a5,-32(s0)
    80000618:	01000793          	li	a5,16
    8000061c:	fcf42623          	sw	a5,-52(s0)
    80000620:	fc042e23          	sw	zero,-36(s0)
    80000624:	fac42783          	lw	a5,-84(s0)
    80000628:	0007879b          	sext.w	a5,a5
    8000062c:	06079c63          	bnez	a5,800006a4 <hextoa+0xe0>
    80000630:	fe843783          	ld	a5,-24(s0)
    80000634:	00178713          	addi	a4,a5,1
    80000638:	fee43423          	sd	a4,-24(s0)
    8000063c:	03000713          	li	a4,48
    80000640:	00e78023          	sb	a4,0(a5)
    80000644:	fdc42783          	lw	a5,-36(s0)
    80000648:	0017879b          	addiw	a5,a5,1
    8000064c:	fcf42e23          	sw	a5,-36(s0)
    80000650:	0600006f          	j	800006b0 <hextoa+0xec>
    80000654:	fcc42783          	lw	a5,-52(s0)
    80000658:	fac42703          	lw	a4,-84(s0)
    8000065c:	02f777bb          	remuw	a5,a4,a5
    80000660:	0007869b          	sext.w	a3,a5
    80000664:	fe843783          	ld	a5,-24(s0)
    80000668:	00178713          	addi	a4,a5,1
    8000066c:	fee43423          	sd	a4,-24(s0)
    80000670:	02069713          	slli	a4,a3,0x20
    80000674:	02075713          	srli	a4,a4,0x20
    80000678:	ff070713          	addi	a4,a4,-16
    8000067c:	00870733          	add	a4,a4,s0
    80000680:	fc874703          	lbu	a4,-56(a4)
    80000684:	00e78023          	sb	a4,0(a5)
    80000688:	fcc42783          	lw	a5,-52(s0)
    8000068c:	fac42703          	lw	a4,-84(s0)
    80000690:	02f757bb          	divuw	a5,a4,a5
    80000694:	faf42623          	sw	a5,-84(s0)
    80000698:	fdc42783          	lw	a5,-36(s0)
    8000069c:	0017879b          	addiw	a5,a5,1
    800006a0:	fcf42e23          	sw	a5,-36(s0)
    800006a4:	fac42783          	lw	a5,-84(s0)
    800006a8:	0007879b          	sext.w	a5,a5
    800006ac:	fa0794e3          	bnez	a5,80000654 <hextoa+0x90>
    800006b0:	fa842783          	lw	a5,-88(s0)
    800006b4:	0007879b          	sext.w	a5,a5
    800006b8:	04f05063          	blez	a5,800006f8 <hextoa+0x134>
    800006bc:	0240006f          	j	800006e0 <hextoa+0x11c>
    800006c0:	fe843783          	ld	a5,-24(s0)
    800006c4:	00178713          	addi	a4,a5,1
    800006c8:	fee43423          	sd	a4,-24(s0)
    800006cc:	03000713          	li	a4,48
    800006d0:	00e78023          	sb	a4,0(a5)
    800006d4:	fdc42783          	lw	a5,-36(s0)
    800006d8:	0017879b          	addiw	a5,a5,1
    800006dc:	fcf42e23          	sw	a5,-36(s0)
    800006e0:	fdc42783          	lw	a5,-36(s0)
    800006e4:	00078713          	mv	a4,a5
    800006e8:	fa842783          	lw	a5,-88(s0)
    800006ec:	0007071b          	sext.w	a4,a4
    800006f0:	0007879b          	sext.w	a5,a5
    800006f4:	fcf746e3          	blt	a4,a5,800006c0 <hextoa+0xfc>
    800006f8:	fe843783          	ld	a5,-24(s0)
    800006fc:	00078023          	sb	zero,0(a5)
    80000700:	fe843783          	ld	a5,-24(s0)
    80000704:	fff78793          	addi	a5,a5,-1
    80000708:	fcf43823          	sd	a5,-48(s0)
    8000070c:	03c0006f          	j	80000748 <hextoa+0x184>
    80000710:	fe043783          	ld	a5,-32(s0)
    80000714:	0007c783          	lbu	a5,0(a5)
    80000718:	fcf405a3          	sb	a5,-53(s0)
    8000071c:	fe043783          	ld	a5,-32(s0)
    80000720:	00178713          	addi	a4,a5,1
    80000724:	fee43023          	sd	a4,-32(s0)
    80000728:	fd043703          	ld	a4,-48(s0)
    8000072c:	00074703          	lbu	a4,0(a4)
    80000730:	00e78023          	sb	a4,0(a5)
    80000734:	fd043783          	ld	a5,-48(s0)
    80000738:	fff78713          	addi	a4,a5,-1
    8000073c:	fce43823          	sd	a4,-48(s0)
    80000740:	fcb44703          	lbu	a4,-53(s0)
    80000744:	00e78023          	sb	a4,0(a5)
    80000748:	fe043703          	ld	a4,-32(s0)
    8000074c:	fd043783          	ld	a5,-48(s0)
    80000750:	fcf760e3          	bltu	a4,a5,80000710 <hextoa+0x14c>
    80000754:	00000013          	nop
    80000758:	00000013          	nop
    8000075c:	05813403          	ld	s0,88(sp)
    80000760:	06010113          	addi	sp,sp,96
    80000764:	00008067          	ret

0000000080000768 <strcpy>:
    80000768:	fd010113          	addi	sp,sp,-48
    8000076c:	02813423          	sd	s0,40(sp)
    80000770:	03010413          	addi	s0,sp,48
    80000774:	fca43c23          	sd	a0,-40(s0)
    80000778:	fcb43823          	sd	a1,-48(s0)
    8000077c:	fd843783          	ld	a5,-40(s0)
    80000780:	fef43423          	sd	a5,-24(s0)
    80000784:	0240006f          	j	800007a8 <strcpy+0x40>
    80000788:	fd043703          	ld	a4,-48(s0)
    8000078c:	00170793          	addi	a5,a4,1
    80000790:	fcf43823          	sd	a5,-48(s0)
    80000794:	fe843783          	ld	a5,-24(s0)
    80000798:	00178693          	addi	a3,a5,1
    8000079c:	fed43423          	sd	a3,-24(s0)
    800007a0:	00074703          	lbu	a4,0(a4)
    800007a4:	00e78023          	sb	a4,0(a5)
    800007a8:	fd043783          	ld	a5,-48(s0)
    800007ac:	0007c783          	lbu	a5,0(a5)
    800007b0:	fc079ce3          	bnez	a5,80000788 <strcpy+0x20>
    800007b4:	fe843783          	ld	a5,-24(s0)
    800007b8:	00078023          	sb	zero,0(a5)
    800007bc:	fd843783          	ld	a5,-40(s0)
    800007c0:	00078513          	mv	a0,a5
    800007c4:	02813403          	ld	s0,40(sp)
    800007c8:	03010113          	addi	sp,sp,48
    800007cc:	00008067          	ret

00000000800007d0 <printf>:
    800007d0:	f4010113          	addi	sp,sp,-192
    800007d4:	06113c23          	sd	ra,120(sp)
    800007d8:	06813823          	sd	s0,112(sp)
    800007dc:	08010413          	addi	s0,sp,128
    800007e0:	f8a43423          	sd	a0,-120(s0)
    800007e4:	00b43423          	sd	a1,8(s0)
    800007e8:	00c43823          	sd	a2,16(s0)
    800007ec:	00d43c23          	sd	a3,24(s0)
    800007f0:	02e43023          	sd	a4,32(s0)
    800007f4:	02f43423          	sd	a5,40(s0)
    800007f8:	03043823          	sd	a6,48(s0)
    800007fc:	03143c23          	sd	a7,56(s0)
    80000800:	f8843783          	ld	a5,-120(s0)
    80000804:	00079c63          	bnez	a5,8000081c <printf+0x4c>
    80000808:	00002517          	auipc	a0,0x2
    8000080c:	97050513          	addi	a0,a0,-1680 # 80002178 <rodata_bpf_end+0x116>
    80000810:	b9dff0ef          	jal	800003ac <uart_puts>
    80000814:	00000793          	li	a5,0
    80000818:	28c0006f          	j	80000aa4 <printf+0x2d4>
    8000081c:	04040793          	addi	a5,s0,64
    80000820:	f8f43023          	sd	a5,-128(s0)
    80000824:	f8043783          	ld	a5,-128(s0)
    80000828:	fc878793          	addi	a5,a5,-56
    8000082c:	faf43823          	sd	a5,-80(s0)
    80000830:	f8843783          	ld	a5,-120(s0)
    80000834:	fcf43c23          	sd	a5,-40(s0)
    80000838:	fe042623          	sw	zero,-20(s0)
    8000083c:	fe042423          	sw	zero,-24(s0)
    80000840:	fe042223          	sw	zero,-28(s0)
    80000844:	fc042a23          	sw	zero,-44(s0)
    80000848:	fe842783          	lw	a5,-24(s0)
    8000084c:	fd843703          	ld	a4,-40(s0)
    80000850:	00f707b3          	add	a5,a4,a5
    80000854:	0007c783          	lbu	a5,0(a5)
    80000858:	00078713          	mv	a4,a5
    8000085c:	02500793          	li	a5,37
    80000860:	00f71a63          	bne	a4,a5,80000874 <printf+0xa4>
    80000864:	fe842783          	lw	a5,-24(s0)
    80000868:	0017879b          	addiw	a5,a5,1
    8000086c:	fef42423          	sw	a5,-24(s0)
    80000870:	0400006f          	j	800008b0 <printf+0xe0>
    80000874:	fe842783          	lw	a5,-24(s0)
    80000878:	fd843703          	ld	a4,-40(s0)
    8000087c:	00f707b3          	add	a5,a4,a5
    80000880:	0007c783          	lbu	a5,0(a5)
    80000884:	20078c63          	beqz	a5,80000a9c <printf+0x2cc>
    80000888:	fe842783          	lw	a5,-24(s0)
    8000088c:	fd843703          	ld	a4,-40(s0)
    80000890:	00f707b3          	add	a5,a4,a5
    80000894:	0007c783          	lbu	a5,0(a5)
    80000898:	00078513          	mv	a0,a5
    8000089c:	abdff0ef          	jal	80000358 <uart_putc>
    800008a0:	fe842783          	lw	a5,-24(s0)
    800008a4:	0017879b          	addiw	a5,a5,1
    800008a8:	fef42423          	sw	a5,-24(s0)
    800008ac:	f9dff06f          	j	80000848 <printf+0x78>
    800008b0:	fe842783          	lw	a5,-24(s0)
    800008b4:	fd843703          	ld	a4,-40(s0)
    800008b8:	00f707b3          	add	a5,a4,a5
    800008bc:	0007c783          	lbu	a5,0(a5)
    800008c0:	fcf42a23          	sw	a5,-44(s0)
    800008c4:	fd442783          	lw	a5,-44(s0)
    800008c8:	fd07879b          	addiw	a5,a5,-48
    800008cc:	0007879b          	sext.w	a5,a5
    800008d0:	00078713          	mv	a4,a5
    800008d4:	00900793          	li	a5,9
    800008d8:	04e7e663          	bltu	a5,a4,80000924 <printf+0x154>
    800008dc:	fd442783          	lw	a5,-44(s0)
    800008e0:	fd07879b          	addiw	a5,a5,-48
    800008e4:	0007879b          	sext.w	a5,a5
    800008e8:	faf42e23          	sw	a5,-68(s0)
    800008ec:	fec42783          	lw	a5,-20(s0)
    800008f0:	00078713          	mv	a4,a5
    800008f4:	00070793          	mv	a5,a4
    800008f8:	0027979b          	slliw	a5,a5,0x2
    800008fc:	00e787bb          	addw	a5,a5,a4
    80000900:	0017979b          	slliw	a5,a5,0x1
    80000904:	0007879b          	sext.w	a5,a5
    80000908:	fbc42703          	lw	a4,-68(s0)
    8000090c:	00f707bb          	addw	a5,a4,a5
    80000910:	fef42623          	sw	a5,-20(s0)
    80000914:	fe842783          	lw	a5,-24(s0)
    80000918:	0017879b          	addiw	a5,a5,1
    8000091c:	fef42423          	sw	a5,-24(s0)
    80000920:	f91ff06f          	j	800008b0 <printf+0xe0>
    80000924:	00000013          	nop
    80000928:	fe842783          	lw	a5,-24(s0)
    8000092c:	fd843703          	ld	a4,-40(s0)
    80000930:	00f707b3          	add	a5,a4,a5
    80000934:	0007c783          	lbu	a5,0(a5)
    80000938:	00078713          	mv	a4,a5
    8000093c:	06400793          	li	a5,100
    80000940:	04f71463          	bne	a4,a5,80000988 <printf+0x1b8>
    80000944:	fb043783          	ld	a5,-80(s0)
    80000948:	00878713          	addi	a4,a5,8
    8000094c:	fae43823          	sd	a4,-80(s0)
    80000950:	0007a783          	lw	a5,0(a5)
    80000954:	fcf42023          	sw	a5,-64(s0)
    80000958:	f9040713          	addi	a4,s0,-112
    8000095c:	fc042783          	lw	a5,-64(s0)
    80000960:	00070593          	mv	a1,a4
    80000964:	00078513          	mv	a0,a5
    80000968:	b61ff0ef          	jal	800004c8 <itoa>
    8000096c:	f9040793          	addi	a5,s0,-112
    80000970:	00078513          	mv	a0,a5
    80000974:	a39ff0ef          	jal	800003ac <uart_puts>
    80000978:	fe442783          	lw	a5,-28(s0)
    8000097c:	0017879b          	addiw	a5,a5,1
    80000980:	fef42223          	sw	a5,-28(s0)
    80000984:	1040006f          	j	80000a88 <printf+0x2b8>
    80000988:	fe842783          	lw	a5,-24(s0)
    8000098c:	fd843703          	ld	a4,-40(s0)
    80000990:	00f707b3          	add	a5,a4,a5
    80000994:	0007c783          	lbu	a5,0(a5)
    80000998:	00078713          	mv	a4,a5
    8000099c:	07800793          	li	a5,120
    800009a0:	04f71a63          	bne	a4,a5,800009f4 <printf+0x224>
    800009a4:	fb043783          	ld	a5,-80(s0)
    800009a8:	00878713          	addi	a4,a5,8
    800009ac:	fae43823          	sd	a4,-80(s0)
    800009b0:	0007a783          	lw	a5,0(a5)
    800009b4:	fcf42223          	sw	a5,-60(s0)
    800009b8:	fec42683          	lw	a3,-20(s0)
    800009bc:	f9040713          	addi	a4,s0,-112
    800009c0:	fc442783          	lw	a5,-60(s0)
    800009c4:	00068613          	mv	a2,a3
    800009c8:	00070593          	mv	a1,a4
    800009cc:	00078513          	mv	a0,a5
    800009d0:	bf5ff0ef          	jal	800005c4 <hextoa>
    800009d4:	f9040793          	addi	a5,s0,-112
    800009d8:	00078513          	mv	a0,a5
    800009dc:	9d1ff0ef          	jal	800003ac <uart_puts>
    800009e0:	00050793          	mv	a5,a0
    800009e4:	fe442703          	lw	a4,-28(s0)
    800009e8:	00f707bb          	addw	a5,a4,a5
    800009ec:	fef42223          	sw	a5,-28(s0)
    800009f0:	0980006f          	j	80000a88 <printf+0x2b8>
    800009f4:	fe842783          	lw	a5,-24(s0)
    800009f8:	fd843703          	ld	a4,-40(s0)
    800009fc:	00f707b3          	add	a5,a4,a5
    80000a00:	0007c783          	lbu	a5,0(a5)
    80000a04:	00078713          	mv	a4,a5
    80000a08:	07300793          	li	a5,115
    80000a0c:	02f71a63          	bne	a4,a5,80000a40 <printf+0x270>
    80000a10:	fb043783          	ld	a5,-80(s0)
    80000a14:	00878713          	addi	a4,a5,8
    80000a18:	fae43823          	sd	a4,-80(s0)
    80000a1c:	0007b783          	ld	a5,0(a5)
    80000a20:	fcf43423          	sd	a5,-56(s0)
    80000a24:	fc843503          	ld	a0,-56(s0)
    80000a28:	985ff0ef          	jal	800003ac <uart_puts>
    80000a2c:	00050793          	mv	a5,a0
    80000a30:	fe442703          	lw	a4,-28(s0)
    80000a34:	00f707bb          	addw	a5,a4,a5
    80000a38:	fef42223          	sw	a5,-28(s0)
    80000a3c:	04c0006f          	j	80000a88 <printf+0x2b8>
    80000a40:	fe842783          	lw	a5,-24(s0)
    80000a44:	fd843703          	ld	a4,-40(s0)
    80000a48:	00f707b3          	add	a5,a4,a5
    80000a4c:	0007c783          	lbu	a5,0(a5)
    80000a50:	00078713          	mv	a4,a5
    80000a54:	06300793          	li	a5,99
    80000a58:	02f71863          	bne	a4,a5,80000a88 <printf+0x2b8>
    80000a5c:	fb043783          	ld	a5,-80(s0)
    80000a60:	00878713          	addi	a4,a5,8
    80000a64:	fae43823          	sd	a4,-80(s0)
    80000a68:	0007a783          	lw	a5,0(a5)
    80000a6c:	fcf409a3          	sb	a5,-45(s0)
    80000a70:	fd344783          	lbu	a5,-45(s0)
    80000a74:	00078513          	mv	a0,a5
    80000a78:	8e1ff0ef          	jal	80000358 <uart_putc>
    80000a7c:	fe442783          	lw	a5,-28(s0)
    80000a80:	0017879b          	addiw	a5,a5,1
    80000a84:	fef42223          	sw	a5,-28(s0)
    80000a88:	fe042623          	sw	zero,-20(s0)
    80000a8c:	fe842783          	lw	a5,-24(s0)
    80000a90:	0017879b          	addiw	a5,a5,1
    80000a94:	fef42423          	sw	a5,-24(s0)
    80000a98:	db1ff06f          	j	80000848 <printf+0x78>
    80000a9c:	00000013          	nop
    80000aa0:	fe442783          	lw	a5,-28(s0)
    80000aa4:	00078513          	mv	a0,a5
    80000aa8:	07813083          	ld	ra,120(sp)
    80000aac:	07013403          	ld	s0,112(sp)
    80000ab0:	0c010113          	addi	sp,sp,192
    80000ab4:	00008067          	ret

0000000080000ab8 <strlen>:
    80000ab8:	fd010113          	addi	sp,sp,-48
    80000abc:	02813423          	sd	s0,40(sp)
    80000ac0:	03010413          	addi	s0,sp,48
    80000ac4:	fca43c23          	sd	a0,-40(s0)
    80000ac8:	fe042623          	sw	zero,-20(s0)
    80000acc:	0100006f          	j	80000adc <strlen+0x24>
    80000ad0:	fec42783          	lw	a5,-20(s0)
    80000ad4:	0017879b          	addiw	a5,a5,1
    80000ad8:	fef42623          	sw	a5,-20(s0)
    80000adc:	fec42783          	lw	a5,-20(s0)
    80000ae0:	fd843703          	ld	a4,-40(s0)
    80000ae4:	00f707b3          	add	a5,a4,a5
    80000ae8:	0007c783          	lbu	a5,0(a5)
    80000aec:	fe0792e3          	bnez	a5,80000ad0 <strlen+0x18>
    80000af0:	fec42783          	lw	a5,-20(s0)
    80000af4:	00078513          	mv	a0,a5
    80000af8:	02813403          	ld	s0,40(sp)
    80000afc:	03010113          	addi	sp,sp,48
    80000b00:	00008067          	ret

0000000080000b04 <_bpf_helper_ext_0006>:
    80000b04:	f3010113          	addi	sp,sp,-208
    80000b08:	08113c23          	sd	ra,152(sp)
    80000b0c:	08813823          	sd	s0,144(sp)
    80000b10:	0a010413          	addi	s0,sp,160
    80000b14:	f6a43c23          	sd	a0,-136(s0)
    80000b18:	f6b43823          	sd	a1,-144(s0)
    80000b1c:	00c43023          	sd	a2,0(s0)
    80000b20:	00d43423          	sd	a3,8(s0)
    80000b24:	00e43823          	sd	a4,16(s0)
    80000b28:	00f43c23          	sd	a5,24(s0)
    80000b2c:	03043023          	sd	a6,32(s0)
    80000b30:	03143423          	sd	a7,40(s0)
    80000b34:	f7843783          	ld	a5,-136(s0)
    80000b38:	fef43423          	sd	a5,-24(s0)
    80000b3c:	f7843703          	ld	a4,-136(s0)
    80000b40:	00001797          	auipc	a5,0x1
    80000b44:	4c878793          	addi	a5,a5,1224 # 80002008 <rodata_bpf_start>
    80000b48:	00f707b3          	add	a5,a4,a5
    80000b4c:	fcf43c23          	sd	a5,-40(s0)
    80000b50:	00001717          	auipc	a4,0x1
    80000b54:	51270713          	addi	a4,a4,1298 # 80002062 <rodata_bpf_end>
    80000b58:	00001797          	auipc	a5,0x1
    80000b5c:	4b078793          	addi	a5,a5,1200 # 80002008 <rodata_bpf_start>
    80000b60:	40f707b3          	sub	a5,a4,a5
    80000b64:	fcf43823          	sd	a5,-48(s0)
    80000b68:	fe843783          	ld	a5,-24(s0)
    80000b6c:	02079663          	bnez	a5,80000b98 <_bpf_helper_ext_0006+0x94>
    80000b70:	fd843783          	ld	a5,-40(s0)
    80000b74:	00078863          	beqz	a5,80000b84 <_bpf_helper_ext_0006+0x80>
    80000b78:	fd843783          	ld	a5,-40(s0)
    80000b7c:	fef43423          	sd	a5,-24(s0)
    80000b80:	0180006f          	j	80000b98 <_bpf_helper_ext_0006+0x94>
    80000b84:	00001517          	auipc	a0,0x1
    80000b88:	62c50513          	addi	a0,a0,1580 # 800021b0 <rodata_bpf_end+0x14e>
    80000b8c:	821ff0ef          	jal	800003ac <uart_puts>
    80000b90:	00000793          	li	a5,0
    80000b94:	2640006f          	j	80000df8 <_bpf_helper_ext_0006+0x2f4>
    80000b98:	03040793          	addi	a5,s0,48
    80000b9c:	f6f43423          	sd	a5,-152(s0)
    80000ba0:	f6843783          	ld	a5,-152(s0)
    80000ba4:	fd078793          	addi	a5,a5,-48
    80000ba8:	faf43023          	sd	a5,-96(s0)
    80000bac:	fe843783          	ld	a5,-24(s0)
    80000bb0:	fcf43423          	sd	a5,-56(s0)
    80000bb4:	fe042223          	sw	zero,-28(s0)
    80000bb8:	fe042023          	sw	zero,-32(s0)
    80000bbc:	fc042223          	sw	zero,-60(s0)
    80000bc0:	fe042783          	lw	a5,-32(s0)
    80000bc4:	fc843703          	ld	a4,-56(s0)
    80000bc8:	00f707b3          	add	a5,a4,a5
    80000bcc:	0007c783          	lbu	a5,0(a5)
    80000bd0:	00078713          	mv	a4,a5
    80000bd4:	02500793          	li	a5,37
    80000bd8:	00f71a63          	bne	a4,a5,80000bec <_bpf_helper_ext_0006+0xe8>
    80000bdc:	fe042783          	lw	a5,-32(s0)
    80000be0:	0017879b          	addiw	a5,a5,1
    80000be4:	fef42023          	sw	a5,-32(s0)
    80000be8:	04c0006f          	j	80000c34 <_bpf_helper_ext_0006+0x130>
    80000bec:	fe042783          	lw	a5,-32(s0)
    80000bf0:	fc843703          	ld	a4,-56(s0)
    80000bf4:	00f707b3          	add	a5,a4,a5
    80000bf8:	0007c783          	lbu	a5,0(a5)
    80000bfc:	1e078663          	beqz	a5,80000de8 <_bpf_helper_ext_0006+0x2e4>
    80000c00:	fe042783          	lw	a5,-32(s0)
    80000c04:	f7043703          	ld	a4,-144(s0)
    80000c08:	1ee7f463          	bgeu	a5,a4,80000df0 <_bpf_helper_ext_0006+0x2ec>
    80000c0c:	fe042783          	lw	a5,-32(s0)
    80000c10:	fc843703          	ld	a4,-56(s0)
    80000c14:	00f707b3          	add	a5,a4,a5
    80000c18:	0007c783          	lbu	a5,0(a5)
    80000c1c:	00078513          	mv	a0,a5
    80000c20:	f38ff0ef          	jal	80000358 <uart_putc>
    80000c24:	fe042783          	lw	a5,-32(s0)
    80000c28:	0017879b          	addiw	a5,a5,1
    80000c2c:	fef42023          	sw	a5,-32(s0)
    80000c30:	f91ff06f          	j	80000bc0 <_bpf_helper_ext_0006+0xbc>
    80000c34:	fe042783          	lw	a5,-32(s0)
    80000c38:	fc843703          	ld	a4,-56(s0)
    80000c3c:	00f707b3          	add	a5,a4,a5
    80000c40:	0007c783          	lbu	a5,0(a5)
    80000c44:	fcf42223          	sw	a5,-60(s0)
    80000c48:	fc442783          	lw	a5,-60(s0)
    80000c4c:	fd07879b          	addiw	a5,a5,-48
    80000c50:	0007879b          	sext.w	a5,a5
    80000c54:	00078713          	mv	a4,a5
    80000c58:	00900793          	li	a5,9
    80000c5c:	04e7e663          	bltu	a5,a4,80000ca8 <_bpf_helper_ext_0006+0x1a4>
    80000c60:	fc442783          	lw	a5,-60(s0)
    80000c64:	fd07879b          	addiw	a5,a5,-48
    80000c68:	0007879b          	sext.w	a5,a5
    80000c6c:	faf42623          	sw	a5,-84(s0)
    80000c70:	fe442783          	lw	a5,-28(s0)
    80000c74:	00078713          	mv	a4,a5
    80000c78:	00070793          	mv	a5,a4
    80000c7c:	0027979b          	slliw	a5,a5,0x2
    80000c80:	00e787bb          	addw	a5,a5,a4
    80000c84:	0017979b          	slliw	a5,a5,0x1
    80000c88:	0007879b          	sext.w	a5,a5
    80000c8c:	fac42703          	lw	a4,-84(s0)
    80000c90:	00f707bb          	addw	a5,a4,a5
    80000c94:	fef42223          	sw	a5,-28(s0)
    80000c98:	fe042783          	lw	a5,-32(s0)
    80000c9c:	0017879b          	addiw	a5,a5,1
    80000ca0:	fef42023          	sw	a5,-32(s0)
    80000ca4:	f91ff06f          	j	80000c34 <_bpf_helper_ext_0006+0x130>
    80000ca8:	00000013          	nop
    80000cac:	fe042783          	lw	a5,-32(s0)
    80000cb0:	fc843703          	ld	a4,-56(s0)
    80000cb4:	00f707b3          	add	a5,a4,a5
    80000cb8:	0007c783          	lbu	a5,0(a5)
    80000cbc:	00078713          	mv	a4,a5
    80000cc0:	06400793          	li	a5,100
    80000cc4:	02f71e63          	bne	a4,a5,80000d00 <_bpf_helper_ext_0006+0x1fc>
    80000cc8:	fa043783          	ld	a5,-96(s0)
    80000ccc:	00878713          	addi	a4,a5,8
    80000cd0:	fae43023          	sd	a4,-96(s0)
    80000cd4:	0007a783          	lw	a5,0(a5)
    80000cd8:	faf42823          	sw	a5,-80(s0)
    80000cdc:	f8040713          	addi	a4,s0,-128
    80000ce0:	fb042783          	lw	a5,-80(s0)
    80000ce4:	00070593          	mv	a1,a4
    80000ce8:	00078513          	mv	a0,a5
    80000cec:	fdcff0ef          	jal	800004c8 <itoa>
    80000cf0:	f8040793          	addi	a5,s0,-128
    80000cf4:	00078513          	mv	a0,a5
    80000cf8:	eb4ff0ef          	jal	800003ac <uart_puts>
    80000cfc:	0d80006f          	j	80000dd4 <_bpf_helper_ext_0006+0x2d0>
    80000d00:	fe042783          	lw	a5,-32(s0)
    80000d04:	fc843703          	ld	a4,-56(s0)
    80000d08:	00f707b3          	add	a5,a4,a5
    80000d0c:	0007c783          	lbu	a5,0(a5)
    80000d10:	00078713          	mv	a4,a5
    80000d14:	07800793          	li	a5,120
    80000d18:	04f71263          	bne	a4,a5,80000d5c <_bpf_helper_ext_0006+0x258>
    80000d1c:	fa043783          	ld	a5,-96(s0)
    80000d20:	00878713          	addi	a4,a5,8
    80000d24:	fae43023          	sd	a4,-96(s0)
    80000d28:	0007a783          	lw	a5,0(a5)
    80000d2c:	faf42a23          	sw	a5,-76(s0)
    80000d30:	fe442683          	lw	a3,-28(s0)
    80000d34:	f8040713          	addi	a4,s0,-128
    80000d38:	fb442783          	lw	a5,-76(s0)
    80000d3c:	00068613          	mv	a2,a3
    80000d40:	00070593          	mv	a1,a4
    80000d44:	00078513          	mv	a0,a5
    80000d48:	87dff0ef          	jal	800005c4 <hextoa>
    80000d4c:	f8040793          	addi	a5,s0,-128
    80000d50:	00078513          	mv	a0,a5
    80000d54:	e58ff0ef          	jal	800003ac <uart_puts>
    80000d58:	07c0006f          	j	80000dd4 <_bpf_helper_ext_0006+0x2d0>
    80000d5c:	fe042783          	lw	a5,-32(s0)
    80000d60:	fc843703          	ld	a4,-56(s0)
    80000d64:	00f707b3          	add	a5,a4,a5
    80000d68:	0007c783          	lbu	a5,0(a5)
    80000d6c:	00078713          	mv	a4,a5
    80000d70:	07300793          	li	a5,115
    80000d74:	02f71263          	bne	a4,a5,80000d98 <_bpf_helper_ext_0006+0x294>
    80000d78:	fa043783          	ld	a5,-96(s0)
    80000d7c:	00878713          	addi	a4,a5,8
    80000d80:	fae43023          	sd	a4,-96(s0)
    80000d84:	0007b783          	ld	a5,0(a5)
    80000d88:	faf43c23          	sd	a5,-72(s0)
    80000d8c:	fb843503          	ld	a0,-72(s0)
    80000d90:	e1cff0ef          	jal	800003ac <uart_puts>
    80000d94:	0400006f          	j	80000dd4 <_bpf_helper_ext_0006+0x2d0>
    80000d98:	fe042783          	lw	a5,-32(s0)
    80000d9c:	fc843703          	ld	a4,-56(s0)
    80000da0:	00f707b3          	add	a5,a4,a5
    80000da4:	0007c783          	lbu	a5,0(a5)
    80000da8:	00078713          	mv	a4,a5
    80000dac:	06300793          	li	a5,99
    80000db0:	02f71263          	bne	a4,a5,80000dd4 <_bpf_helper_ext_0006+0x2d0>
    80000db4:	fa043783          	ld	a5,-96(s0)
    80000db8:	00878713          	addi	a4,a5,8
    80000dbc:	fae43023          	sd	a4,-96(s0)
    80000dc0:	0007a783          	lw	a5,0(a5)
    80000dc4:	fcf401a3          	sb	a5,-61(s0)
    80000dc8:	fc344783          	lbu	a5,-61(s0)
    80000dcc:	00078513          	mv	a0,a5
    80000dd0:	d88ff0ef          	jal	80000358 <uart_putc>
    80000dd4:	fe042223          	sw	zero,-28(s0)
    80000dd8:	fe042783          	lw	a5,-32(s0)
    80000ddc:	0017879b          	addiw	a5,a5,1
    80000de0:	fef42023          	sw	a5,-32(s0)
    80000de4:	dddff06f          	j	80000bc0 <_bpf_helper_ext_0006+0xbc>
    80000de8:	00000013          	nop
    80000dec:	0080006f          	j	80000df4 <_bpf_helper_ext_0006+0x2f0>
    80000df0:	00000013          	nop
    80000df4:	00000793          	li	a5,0
    80000df8:	00078513          	mv	a0,a5
    80000dfc:	09813083          	ld	ra,152(sp)
    80000e00:	09013403          	ld	s0,144(sp)
    80000e04:	0d010113          	addi	sp,sp,208
    80000e08:	00008067          	ret

0000000080000e0c <bpf_main>:
    80000e0c:	81010113          	addi	sp,sp,-2032
    80000e10:	7e113423          	sd	ra,2024(sp)
    80000e14:	7e813023          	sd	s0,2016(sp)
    80000e18:	000045b7          	lui	a1,0x4
    80000e1c:	2e05859b          	addiw	a1,a1,736 # 42e0 <_start-0x7fffbd20>
    80000e20:	40b10133          	sub	sp,sp,a1
    80000e24:	000045b7          	lui	a1,0x4
    80000e28:	00001637          	lui	a2,0x1
    80000e2c:	a186061b          	addiw	a2,a2,-1512 # a18 <_start-0x7ffff5e8>
    80000e30:	00c10633          	add	a2,sp,a2
    80000e34:	00b605b3          	add	a1,a2,a1
    80000e38:	00005637          	lui	a2,0x5
    80000e3c:	a686061b          	addiw	a2,a2,-1432 # 4a68 <_start-0x7fffb598>
    80000e40:	00c10633          	add	a2,sp,a2
    80000e44:	00b63023          	sd	a1,0(a2)
    80000e48:	00013823          	sd	zero,16(sp)
    80000e4c:	000055b7          	lui	a1,0x5
    80000e50:	a885859b          	addiw	a1,a1,-1400 # 4a88 <_start-0x7fffb578>
    80000e54:	00b105b3          	add	a1,sp,a1
    80000e58:	00a5b023          	sd	a0,0(a1)
    80000e5c:	00005537          	lui	a0,0x5
    80000e60:	aa05051b          	addiw	a0,a0,-1376 # 4aa0 <_start-0x7fffb560>
    80000e64:	00a10533          	add	a0,sp,a0
    80000e68:	00053603          	ld	a2,0(a0)
    80000e6c:	00005537          	lui	a0,0x5
    80000e70:	a985051b          	addiw	a0,a0,-1384 # 4a98 <_start-0x7fffb568>
    80000e74:	00a10533          	add	a0,sp,a0
    80000e78:	00053683          	ld	a3,0(a0)
    80000e7c:	00005537          	lui	a0,0x5
    80000e80:	a905051b          	addiw	a0,a0,-1392 # 4a90 <_start-0x7fffb570>
    80000e84:	00a10533          	add	a0,sp,a0
    80000e88:	00053703          	ld	a4,0(a0)
    80000e8c:	00005537          	lui	a0,0x5
    80000e90:	ab05051b          	addiw	a0,a0,-1360 # 4ab0 <_start-0x7fffb550>
    80000e94:	00a10533          	add	a0,sp,a0
    80000e98:	00053023          	sd	zero,0(a0)
    80000e9c:	01600413          	li	s0,22
    80000ea0:	00005537          	lui	a0,0x5
    80000ea4:	aa85051b          	addiw	a0,a0,-1368 # 4aa8 <_start-0x7fffb558>
    80000ea8:	00a10533          	add	a0,sp,a0
    80000eac:	00853023          	sd	s0,0(a0)
    80000eb0:	01600593          	li	a1,22
    80000eb4:	00000513          	li	a0,0
    80000eb8:	00000097          	auipc	ra,0x0
    80000ebc:	c4c080e7          	jalr	-948(ra) # 80000b04 <_bpf_helper_ext_0006>
    80000ec0:	000055b7          	lui	a1,0x5
    80000ec4:	ab85859b          	addiw	a1,a1,-1352 # 4ab8 <_start-0x7fffb548>
    80000ec8:	00b105b3          	add	a1,sp,a1
    80000ecc:	00a5b023          	sd	a0,0(a1)
    80000ed0:	00005537          	lui	a0,0x5
    80000ed4:	ab05051b          	addiw	a0,a0,-1360 # 4ab0 <_start-0x7fffb550>
    80000ed8:	00a10533          	add	a0,sp,a0
    80000edc:	00853023          	sd	s0,0(a0)
    80000ee0:	00005537          	lui	a0,0x5
    80000ee4:	a885051b          	addiw	a0,a0,-1400 # 4a88 <_start-0x7fffb578>
    80000ee8:	00a10533          	add	a0,sp,a0
    80000eec:	00053603          	ld	a2,0(a0)
    80000ef0:	00005537          	lui	a0,0x5
    80000ef4:	a985051b          	addiw	a0,a0,-1384 # 4a98 <_start-0x7fffb568>
    80000ef8:	00a10533          	add	a0,sp,a0
    80000efc:	00053683          	ld	a3,0(a0)
    80000f00:	00005537          	lui	a0,0x5
    80000f04:	a905051b          	addiw	a0,a0,-1392 # 4a90 <_start-0x7fffb570>
    80000f08:	00a10533          	add	a0,sp,a0
    80000f0c:	00053703          	ld	a4,0(a0)
    80000f10:	00e00513          	li	a0,14
    80000f14:	000055b7          	lui	a1,0x5
    80000f18:	aa85859b          	addiw	a1,a1,-1368 # 4aa8 <_start-0x7fffb558>
    80000f1c:	00b105b3          	add	a1,sp,a1
    80000f20:	00a5b023          	sd	a0,0(a1)
    80000f24:	00005537          	lui	a0,0x5
    80000f28:	aa05051b          	addiw	a0,a0,-1376 # 4aa0 <_start-0x7fffb560>
    80000f2c:	00a10533          	add	a0,sp,a0
    80000f30:	00c53023          	sd	a2,0(a0)
    80000f34:	01600513          	li	a0,22
    80000f38:	00e00593          	li	a1,14
    80000f3c:	00000097          	auipc	ra,0x0
    80000f40:	bc8080e7          	jalr	-1080(ra) # 80000b04 <_bpf_helper_ext_0006>
    80000f44:	000055b7          	lui	a1,0x5
    80000f48:	a885859b          	addiw	a1,a1,-1400 # 4a88 <_start-0x7fffb578>
    80000f4c:	00b105b3          	add	a1,sp,a1
    80000f50:	0005b583          	ld	a1,0(a1)
    80000f54:	00005637          	lui	a2,0x5
    80000f58:	ab86061b          	addiw	a2,a2,-1352 # 4ab8 <_start-0x7fffb548>
    80000f5c:	00c10633          	add	a2,sp,a2
    80000f60:	00a63023          	sd	a0,0(a2)
    80000f64:	0005e503          	lwu	a0,0(a1)
    80000f68:	000055b7          	lui	a1,0x5
    80000f6c:	ab05859b          	addiw	a1,a1,-1360 # 4ab0 <_start-0x7fffb550>
    80000f70:	00b105b3          	add	a1,sp,a1
    80000f74:	00a5b023          	sd	a0,0(a1)
    80000f78:	14050c63          	beqz	a0,800010d0 <bpf_main+0x2c4>
    80000f7c:	00005537          	lui	a0,0x5
    80000f80:	a885051b          	addiw	a0,a0,-1400 # 4a88 <_start-0x7fffb578>
    80000f84:	00a10533          	add	a0,sp,a0
    80000f88:	00053503          	ld	a0,0(a0)
    80000f8c:	00456503          	lwu	a0,4(a0)
    80000f90:	000055b7          	lui	a1,0x5
    80000f94:	aa85859b          	addiw	a1,a1,-1368 # 4aa8 <_start-0x7fffb558>
    80000f98:	00b105b3          	add	a1,sp,a1
    80000f9c:	00a5b023          	sd	a0,0(a1)
    80000fa0:	12050863          	beqz	a0,800010d0 <bpf_main+0x2c4>
    80000fa4:	00005537          	lui	a0,0x5
    80000fa8:	ab05051b          	addiw	a0,a0,-1360 # 4ab0 <_start-0x7fffb550>
    80000fac:	00a10533          	add	a0,sp,a0
    80000fb0:	00053503          	ld	a0,0(a0)
    80000fb4:	000055b7          	lui	a1,0x5
    80000fb8:	aa85859b          	addiw	a1,a1,-1368 # 4aa8 <_start-0x7fffb558>
    80000fbc:	00b105b3          	add	a1,sp,a1
    80000fc0:	0005b583          	ld	a1,0(a1)
    80000fc4:	00200613          	li	a2,2
    80000fc8:	000056b7          	lui	a3,0x5
    80000fcc:	a886869b          	addiw	a3,a3,-1400 # 4a88 <_start-0x7fffb578>
    80000fd0:	00d106b3          	add	a3,sp,a3
    80000fd4:	00c6b023          	sd	a2,0(a3)
    80000fd8:	00e50513          	addi	a0,a0,14
    80000fdc:	00005637          	lui	a2,0x5
    80000fe0:	aa06061b          	addiw	a2,a2,-1376 # 4aa0 <_start-0x7fffb560>
    80000fe4:	00c10633          	add	a2,sp,a2
    80000fe8:	00a63023          	sd	a0,0(a2)
    80000fec:	16a5e863          	bltu	a1,a0,8000115c <bpf_main+0x350>
    80000ff0:	00005537          	lui	a0,0x5
    80000ff4:	ab05051b          	addiw	a0,a0,-1360 # 4ab0 <_start-0x7fffb550>
    80000ff8:	00a10533          	add	a0,sp,a0
    80000ffc:	00053503          	ld	a0,0(a0)
    80001000:	00c54583          	lbu	a1,12(a0)
    80001004:	00005637          	lui	a2,0x5
    80001008:	aa86061b          	addiw	a2,a2,-1368 # 4aa8 <_start-0x7fffb558>
    8000100c:	00c10633          	add	a2,sp,a2
    80001010:	00b63023          	sd	a1,0(a2)
    80001014:	00d54503          	lbu	a0,13(a0)
    80001018:	00851513          	slli	a0,a0,0x8
    8000101c:	00b56533          	or	a0,a0,a1
    80001020:	00800593          	li	a1,8
    80001024:	00005637          	lui	a2,0x5
    80001028:	aa06061b          	addiw	a2,a2,-1376 # 4aa0 <_start-0x7fffb560>
    8000102c:	00c10633          	add	a2,sp,a2
    80001030:	00a63023          	sd	a0,0(a2)
    80001034:	24b50463          	beq	a0,a1,8000127c <bpf_main+0x470>
    80001038:	00005537          	lui	a0,0x5
    8000103c:	aa05051b          	addiw	a0,a0,-1376 # 4aa0 <_start-0x7fffb560>
    80001040:	00a10533          	add	a0,sp,a0
    80001044:	00053503          	ld	a0,0(a0)
    80001048:	0ff57593          	zext.b	a1,a0
    8000104c:	03051513          	slli	a0,a0,0x30
    80001050:	03855513          	srli	a0,a0,0x38
    80001054:	00859593          	slli	a1,a1,0x8
    80001058:	00a5e633          	or	a2,a1,a0
    8000105c:	04400513          	li	a0,68
    80001060:	000055b7          	lui	a1,0x5
    80001064:	ab05859b          	addiw	a1,a1,-1360 # 4ab0 <_start-0x7fffb550>
    80001068:	00b105b3          	add	a1,sp,a1
    8000106c:	00a5b023          	sd	a0,0(a1)
    80001070:	00005537          	lui	a0,0x5
    80001074:	a985051b          	addiw	a0,a0,-1384 # 4a98 <_start-0x7fffb568>
    80001078:	00a10533          	add	a0,sp,a0
    8000107c:	00053683          	ld	a3,0(a0)
    80001080:	00005537          	lui	a0,0x5
    80001084:	a905051b          	addiw	a0,a0,-1392 # 4a90 <_start-0x7fffb570>
    80001088:	00a10533          	add	a0,sp,a0
    8000108c:	00053703          	ld	a4,0(a0)
    80001090:	01500513          	li	a0,21
    80001094:	000055b7          	lui	a1,0x5
    80001098:	aa85859b          	addiw	a1,a1,-1368 # 4aa8 <_start-0x7fffb558>
    8000109c:	00b105b3          	add	a1,sp,a1
    800010a0:	00a5b023          	sd	a0,0(a1)
    800010a4:	00005537          	lui	a0,0x5
    800010a8:	aa05051b          	addiw	a0,a0,-1376 # 4aa0 <_start-0x7fffb560>
    800010ac:	00a10533          	add	a0,sp,a0
    800010b0:	00c53023          	sd	a2,0(a0)
    800010b4:	04400513          	li	a0,68
    800010b8:	01500593          	li	a1,21
    800010bc:	00000097          	auipc	ra,0x0
    800010c0:	a48080e7          	jalr	-1464(ra) # 80000b04 <_bpf_helper_ext_0006>
    800010c4:	000055b7          	lui	a1,0x5
    800010c8:	ab85859b          	addiw	a1,a1,-1352 # 4ab8 <_start-0x7fffb548>
    800010cc:	0880006f          	j	80001154 <bpf_main+0x348>
    800010d0:	02400513          	li	a0,36
    800010d4:	000055b7          	lui	a1,0x5
    800010d8:	aa05859b          	addiw	a1,a1,-1376 # 4aa0 <_start-0x7fffb560>
    800010dc:	00b105b3          	add	a1,sp,a1
    800010e0:	0005b603          	ld	a2,0(a1)
    800010e4:	000055b7          	lui	a1,0x5
    800010e8:	a985859b          	addiw	a1,a1,-1384 # 4a98 <_start-0x7fffb568>
    800010ec:	00b105b3          	add	a1,sp,a1
    800010f0:	0005b683          	ld	a3,0(a1)
    800010f4:	000055b7          	lui	a1,0x5
    800010f8:	a905859b          	addiw	a1,a1,-1392 # 4a90 <_start-0x7fffb570>
    800010fc:	00b105b3          	add	a1,sp,a1
    80001100:	0005b703          	ld	a4,0(a1)
    80001104:	000055b7          	lui	a1,0x5
    80001108:	ab05859b          	addiw	a1,a1,-1360 # 4ab0 <_start-0x7fffb550>
    8000110c:	00b105b3          	add	a1,sp,a1
    80001110:	00a5b023          	sd	a0,0(a1)
    80001114:	00d00513          	li	a0,13
    80001118:	000055b7          	lui	a1,0x5
    8000111c:	aa85859b          	addiw	a1,a1,-1368 # 4aa8 <_start-0x7fffb558>
    80001120:	00b105b3          	add	a1,sp,a1
    80001124:	00a5b023          	sd	a0,0(a1)
    80001128:	02400513          	li	a0,36
    8000112c:	00d00593          	li	a1,13
    80001130:	00000097          	auipc	ra,0x0
    80001134:	9d4080e7          	jalr	-1580(ra) # 80000b04 <_bpf_helper_ext_0006>
    80001138:	000055b7          	lui	a1,0x5
    8000113c:	ab85859b          	addiw	a1,a1,-1352 # 4ab8 <_start-0x7fffb548>
    80001140:	00b105b3          	add	a1,sp,a1
    80001144:	00a5b023          	sd	a0,0(a1)
    80001148:	00200513          	li	a0,2
    8000114c:	000055b7          	lui	a1,0x5
    80001150:	a885859b          	addiw	a1,a1,-1400 # 4a88 <_start-0x7fffb578>
    80001154:	00b105b3          	add	a1,sp,a1
    80001158:	00a5b023          	sd	a0,0(a1)
    8000115c:	00005537          	lui	a0,0x5
    80001160:	a885051b          	addiw	a0,a0,-1400 # 4a88 <_start-0x7fffb578>
    80001164:	00a10533          	add	a0,sp,a0
    80001168:	00053503          	ld	a0,0(a0)
    8000116c:	01013583          	ld	a1,16(sp)
    80001170:	00005637          	lui	a2,0x5
    80001174:	ab86061b          	addiw	a2,a2,-1352 # 4ab8 <_start-0x7fffb548>
    80001178:	00c10633          	add	a2,sp,a2
    8000117c:	00a63023          	sd	a0,0(a2)
    80001180:	0c058863          	beqz	a1,80001250 <bpf_main+0x444>
    80001184:	01013503          	ld	a0,16(sp)
    80001188:	00351593          	slli	a1,a0,0x3
    8000118c:	01810613          	addi	a2,sp,24
    80001190:	00c585b3          	add	a1,a1,a2
    80001194:	ff45e683          	lwu	a3,-12(a1)
    80001198:	ff05e703          	lwu	a4,-16(a1)
    8000119c:	02069693          	slli	a3,a3,0x20
    800011a0:	fec5e783          	lwu	a5,-20(a1)
    800011a4:	fe85e803          	lwu	a6,-24(a1)
    800011a8:	00e6e6b3          	or	a3,a3,a4
    800011ac:	00005737          	lui	a4,0x5
    800011b0:	a887071b          	addiw	a4,a4,-1400 # 4a88 <_start-0x7fffb578>
    800011b4:	00e10733          	add	a4,sp,a4
    800011b8:	00d73023          	sd	a3,0(a4)
    800011bc:	02079693          	slli	a3,a5,0x20
    800011c0:	0106e6b3          	or	a3,a3,a6
    800011c4:	fe45e703          	lwu	a4,-28(a1)
    800011c8:	ff85b783          	ld	a5,-8(a1)
    800011cc:	00005837          	lui	a6,0x5
    800011d0:	a808081b          	addiw	a6,a6,-1408 # 4a80 <_start-0x7fffb580>
    800011d4:	01010833          	add	a6,sp,a6
    800011d8:	00d83023          	sd	a3,0(a6)
    800011dc:	fe05e583          	lwu	a1,-32(a1)
    800011e0:	02071693          	slli	a3,a4,0x20
    800011e4:	ffb50513          	addi	a0,a0,-5
    800011e8:	00351713          	slli	a4,a0,0x3
    800011ec:	00e60633          	add	a2,a2,a4
    800011f0:	00466703          	lwu	a4,4(a2)
    800011f4:	00b6e5b3          	or	a1,a3,a1
    800011f8:	00066603          	lwu	a2,0(a2)
    800011fc:	000056b7          	lui	a3,0x5
    80001200:	a786869b          	addiw	a3,a3,-1416 # 4a78 <_start-0x7fffb588>
    80001204:	00d106b3          	add	a3,sp,a3
    80001208:	00b6b023          	sd	a1,0(a3)
    8000120c:	02071593          	slli	a1,a4,0x20
    80001210:	000056b7          	lui	a3,0x5
    80001214:	a686869b          	addiw	a3,a3,-1432 # 4a68 <_start-0x7fffb598>
    80001218:	00d106b3          	add	a3,sp,a3
    8000121c:	0006b683          	ld	a3,0(a3)
    80001220:	00c5e5b3          	or	a1,a1,a2
    80001224:	00005637          	lui	a2,0x5
    80001228:	a706061b          	addiw	a2,a2,-1424 # 4a70 <_start-0x7fffb590>
    8000122c:	00c10633          	add	a2,sp,a2
    80001230:	00b63023          	sd	a1,0(a2)
    80001234:	00a13823          	sd	a0,16(sp)
    80001238:	04068513          	addi	a0,a3,64
    8000123c:	000055b7          	lui	a1,0x5
    80001240:	a685859b          	addiw	a1,a1,-1432 # 4a68 <_start-0x7fffb598>
    80001244:	00b105b3          	add	a1,sp,a1
    80001248:	00a5b023          	sd	a0,0(a1)
    8000124c:	00078067          	jr	a5
    80001250:	00005537          	lui	a0,0x5
    80001254:	ab85051b          	addiw	a0,a0,-1352 # 4ab8 <_start-0x7fffb548>
    80001258:	00a10533          	add	a0,sp,a0
    8000125c:	00053503          	ld	a0,0(a0)
    80001260:	000045b7          	lui	a1,0x4
    80001264:	2e05859b          	addiw	a1,a1,736 # 42e0 <_start-0x7fffbd20>
    80001268:	00b10133          	add	sp,sp,a1
    8000126c:	7e813083          	ld	ra,2024(sp)
    80001270:	7e013403          	ld	s0,2016(sp)
    80001274:	7f010113          	addi	sp,sp,2032
    80001278:	00008067          	ret
    8000127c:	03100513          	li	a0,49
    80001280:	000055b7          	lui	a1,0x5
    80001284:	ab05859b          	addiw	a1,a1,-1360 # 4ab0 <_start-0x7fffb550>
    80001288:	00b105b3          	add	a1,sp,a1
    8000128c:	00a5b023          	sd	a0,0(a1)
    80001290:	01300513          	li	a0,19
    80001294:	000055b7          	lui	a1,0x5
    80001298:	aa85859b          	addiw	a1,a1,-1368 # 4aa8 <_start-0x7fffb558>
    8000129c:	00b105b3          	add	a1,sp,a1
    800012a0:	00a5b023          	sd	a0,0(a1)
    800012a4:	00005537          	lui	a0,0x5
    800012a8:	a985051b          	addiw	a0,a0,-1384 # 4a98 <_start-0x7fffb568>
    800012ac:	00a10533          	add	a0,sp,a0
    800012b0:	00053683          	ld	a3,0(a0)
    800012b4:	00005537          	lui	a0,0x5
    800012b8:	a905051b          	addiw	a0,a0,-1392 # 4a90 <_start-0x7fffb570>
    800012bc:	00a10533          	add	a0,sp,a0
    800012c0:	00053703          	ld	a4,0(a0)
    800012c4:	00001537          	lui	a0,0x1
    800012c8:	8005061b          	addiw	a2,a0,-2048 # 800 <_start-0x7ffff800>
    800012cc:	00005537          	lui	a0,0x5
    800012d0:	aa05051b          	addiw	a0,a0,-1376 # 4aa0 <_start-0x7fffb560>
    800012d4:	00a10533          	add	a0,sp,a0
    800012d8:	00c53023          	sd	a2,0(a0)
    800012dc:	03100513          	li	a0,49
    800012e0:	01300593          	li	a1,19
    800012e4:	00000097          	auipc	ra,0x0
    800012e8:	820080e7          	jalr	-2016(ra) # 80000b04 <_bpf_helper_ext_0006>
    800012ec:	000055b7          	lui	a1,0x5
    800012f0:	ab85859b          	addiw	a1,a1,-1352 # 4ab8 <_start-0x7fffb548>
    800012f4:	00b105b3          	add	a1,sp,a1
    800012f8:	00a5b023          	sd	a0,0(a1)
    800012fc:	00100513          	li	a0,1
    80001300:	e4dff06f          	j	8000114c <bpf_main+0x340>
